ccollections
OrderedDict
p0
((lp1
(lp2
S'Planning Results (%)'
p3
ag0
((lp4
(lp5
S'mean'
p6
ag0
((lp7
(lp8
S'Success (%)'
p9
ag0
((lp10
tp11
Rp12
aa(lp13
S'Nonexecutable (%)'
p14
ag0
((lp15
tp16
Rp17
aa(lp18
S'Time Fail (%)'
p19
ag0
((lp20
tp21
Rp22
aa(lp23
S'Memory Fail (%)'
p24
ag0
((lp25
tp26
Rp27
aatp28
Rp29
aa(lp30
S'error'
p31
ag0
((lp32
(lp33
g9
ag0
((lp34
tp35
Rp36
aa(lp37
g14
ag0
((lp38
tp39
Rp40
aa(lp41
g19
ag0
((lp42
tp43
Rp44
aa(lp45
g24
ag0
((lp46
tp47
Rp48
aatp49
Rp50
aa(lp51
S'sample'
p52
ag0
((lp53
(lp54
g9
ag0
((lp55
tp56
Rp57
aa(lp58
g14
ag0
((lp59
tp60
Rp61
aa(lp62
g19
ag0
((lp63
tp64
Rp65
aa(lp66
g24
ag0
((lp67
tp68
Rp69
aatp70
Rp71
aa(lp72
g9
ag0
((lp73
(lp74
(S'Object'
p75
F0.25
tp76
aF38.0
aa(lp77
(g75
F0.5
tp78
aF33.0
aa(lp79
(g75
F0.75
tp80
aF39.0
aa(lp81
(g75
F1.0
tp82
aF39.0
aa(lp83
(S'Action'
p84
F0.25
tp85
aF29.0
aa(lp86
(g84
F0.5
tp87
aF32.0
aa(lp88
(g84
F0.75
tp89
aF37.0
aa(lp90
(g84
F1.0
tp91
aF37.0
aa(lp92
(S'ActionObject'
p93
F0.25
tp94
aF32.0
aa(lp95
(g93
F0.5
tp96
aF28.0
aa(lp97
(g93
F0.75
tp98
aF34.0
aa(lp99
(g93
F1.0
tp100
aF34.0
aa(lp101
(S'ObjectTime'
p102
F0.25
tp103
aF35.0
aa(lp104
(g102
F0.5
tp105
aF31.0
aa(lp106
(g102
F0.75
tp107
aF36.0
aa(lp108
(g102
F1.0
tp109
aF36.0
aa(lp110
(S'ActionTime'
p111
F0.25
tp112
aF23.0
aa(lp113
(g111
F0.5
tp114
aF31.0
aa(lp115
(g111
F0.75
tp116
aF36.0
aa(lp117
(g111
F1.0
tp118
aF35.0
aa(lp119
(S'ActionObjectTime'
p120
F0.25
tp121
aF28.0
aa(lp122
(g120
F0.5
tp123
aF30.0
aa(lp124
(g120
F0.75
tp125
aF36.0
aa(lp126
(g120
F1.0
tp127
aF35.0
aa(lp128
(S'CoalitionSimilarity'
p129
F0.25
tp130
aF23.0
aa(lp131
(g129
F0.5
tp132
aF20.0
aa(lp133
(g129
F0.75
tp134
aF27.0
aa(lp135
(g129
F1.0
tp136
aF27.0
aa(lp137
(S'CoalitionAssistance'
p138
F0.25
tp139
aF36.0
aa(lp140
(g138
F0.5
tp141
aF28.0
aa(lp142
(g138
F0.75
tp143
aF42.0
aa(lp144
(g138
F1.0
tp145
aF41.0
aa(lp146
(S'CFP'
p147
I0
tp148
aF24.0
aa(lp149
(S'PA'
p150
I0
tp151
aF40.0
aatp152
Rp153
aa(lp154
g14
ag0
((lp155
(lp156
g76
aF26.0
aa(lp157
g78
aF29.0
aa(lp158
g80
aF16.0
aa(lp159
g82
aF16.0
aa(lp160
g85
aF29.0
aa(lp161
g87
aF25.0
aa(lp162
g89
aF13.0
aa(lp163
g91
aF13.0
aa(lp164
g94
aF29.0
aa(lp165
g96
aF28.0
aa(lp166
g98
aF15.0
aa(lp167
g100
aF15.0
aa(lp168
g103
aF28.0
aa(lp169
g105
aF28.0
aa(lp170
g107
aF17.0
aa(lp171
g109
aF17.0
aa(lp172
g112
aF32.0
aa(lp173
g114
aF23.0
aa(lp174
g116
aF15.0
aa(lp175
g118
aF16.0
aa(lp176
g121
aF32.0
aa(lp177
g123
aF25.0
aa(lp178
g125
aF14.0
aa(lp179
g127
aF15.0
aa(lp180
g130
aF33.0
aa(lp181
g132
aF31.0
aa(lp182
g134
aF20.0
aa(lp183
g136
aF20.0
aa(lp184
g139
aF22.0
aa(lp185
g141
aF23.0
aa(lp186
g143
aF6.0
aa(lp187
g145
aF7.0
aa(lp188
g148
aF34.0
aa(lp189
g151
aF0.0
aatp190
Rp191
aa(lp192
g19
ag0
((lp193
(lp194
g76
aF36.0
aa(lp195
g78
aF38.0
aa(lp196
g80
aF45.0
aa(lp197
g82
aF45.0
aa(lp198
g85
aF42.0
aa(lp199
g87
aF43.0
aa(lp200
g89
aF50.0
aa(lp201
g91
aF50.0
aa(lp202
g94
aF39.0
aa(lp203
g96
aF44.0
aa(lp204
g98
aF51.0
aa(lp205
g100
aF51.0
aa(lp206
g103
aF37.0
aa(lp207
g105
aF41.0
aa(lp208
g107
aF47.0
aa(lp209
g109
aF47.0
aa(lp210
g112
aF45.0
aa(lp211
g114
aF46.0
aa(lp212
g116
aF49.0
aa(lp213
g118
aF49.0
aa(lp214
g121
aF40.0
aa(lp215
g123
aF45.0
aa(lp216
g125
aF50.0
aa(lp217
g127
aF50.0
aa(lp218
g130
aF44.0
aa(lp219
g132
aF49.0
aa(lp220
g134
aF53.0
aa(lp221
g136
aF53.0
aa(lp222
g139
aF42.0
aa(lp223
g141
aF49.0
aa(lp224
g143
aF52.0
aa(lp225
g145
aF52.0
aa(lp226
g148
aF42.0
aa(lp227
g151
aF60.0
aatp228
Rp229
aa(lp230
g24
ag0
((lp231
(lp232
g76
aF0.0
aa(lp233
g78
aF0.0
aa(lp234
g80
aF0.0
aa(lp235
g82
aF0.0
aa(lp236
g85
aF0.0
aa(lp237
g87
aF0.0
aa(lp238
g89
aF0.0
aa(lp239
g91
aF0.0
aa(lp240
g94
aF0.0
aa(lp241
g96
aF0.0
aa(lp242
g98
aF0.0
aa(lp243
g100
aF0.0
aa(lp244
g103
aF0.0
aa(lp245
g105
aF0.0
aa(lp246
g107
aF0.0
aa(lp247
g109
aF0.0
aa(lp248
g112
aF0.0
aa(lp249
g114
aF0.0
aa(lp250
g116
aF0.0
aa(lp251
g118
aF0.0
aa(lp252
g121
aF0.0
aa(lp253
g123
aF0.0
aa(lp254
g125
aF0.0
aa(lp255
g127
aF0.0
aa(lp256
g130
aF0.0
aa(lp257
g132
aF0.0
aa(lp258
g134
aF0.0
aa(lp259
g136
aF0.0
aa(lp260
g139
aF0.0
aa(lp261
g141
aF0.0
aa(lp262
g143
aF0.0
aa(lp263
g145
aF0.0
aa(lp264
g148
aF0.0
aa(lp265
g151
aF0.0
aatp266
Rp267
aatp268
Rp269
aa(lp270
S'Makespan (s)'
p271
ag0
((lp272
(lp273
g6
ag0
((lp274
(lp275
g9
ag0
((lp276
(lp277
g76
aF51.156000000000006
aa(lp278
g78
aF44.01351515151515
aa(lp279
g80
aF39.935717948717944
aa(lp280
g82
aF39.779820512820514
aa(lp281
g85
aF50.31903448275862
aa(lp282
g87
aF45.78690625
aa(lp283
g89
aF40.07937837837838
aa(lp284
g91
aF40.05316216216217
aa(lp285
g94
aF49.954
aa(lp286
g96
aF41.439678571428566
aa(lp287
g98
aF37.513147058823535
aa(lp288
g100
aF37.33464705882353
aa(lp289
g103
aF50.236314285714286
aa(lp290
g105
aF45.373516129032254
aa(lp291
g107
aF41.537305555555555
aa(lp292
g109
aF41.79366666666667
aa(lp293
g112
aF44.56626086956522
aa(lp294
g114
aF42.941645161290324
aa(lp295
g116
aF40.00638888888889
aa(lp296
g118
aF39.405742857142855
aa(lp297
g121
aF45.197428571428574
aa(lp298
g123
aF43.63623333333333
aa(lp299
g125
aF39.16855555555556
aa(lp300
g127
aF38.662800000000004
aa(lp301
g130
aF49.870782608695656
aa(lp302
g132
aF51.27075
aa(lp303
g134
aF45.828
aa(lp304
g136
aF45.83503703703704
aa(lp305
g139
aF50.191722222222225
aa(lp306
g141
aF45.04239285714285
aa(lp307
g143
aF40.26909523809523
aa(lp308
g145
aF40.357853658536584
aa(lp309
g148
aF49.538041666666665
aa(lp310
g151
aF34.6025
aatp311
Rp312
aa(lp313
g14
ag0
((lp314
(lp315
g76
aF-1.0
aa(lp316
g78
aF-1.0
aa(lp317
g80
aF-1.0
aa(lp318
g82
aF-1.0
aa(lp319
g85
aF-1.0
aa(lp320
g87
aF-1.0
aa(lp321
g89
aF-1.0
aa(lp322
g91
aF-1.0
aa(lp323
g94
aF-1.0
aa(lp324
g96
aF-1.0
aa(lp325
g98
aF-1.0
aa(lp326
g100
aF-1.0
aa(lp327
g103
aF-1.0
aa(lp328
g105
aF-1.0
aa(lp329
g107
aF-1.0
aa(lp330
g109
aF-1.0
aa(lp331
g112
aF-1.0
aa(lp332
g114
aF-1.0
aa(lp333
g116
aF-1.0
aa(lp334
g118
aF-1.0
aa(lp335
g121
aF-1.0
aa(lp336
g123
aF-1.0
aa(lp337
g125
aF-1.0
aa(lp338
g127
aF-1.0
aa(lp339
g130
aF-1.0
aa(lp340
g132
aF-1.0
aa(lp341
g134
aF-1.0
aa(lp342
g136
aF-1.0
aa(lp343
g139
aF-1.0
aa(lp344
g141
aF-1.0
aa(lp345
g143
aF-1.0
aa(lp346
g145
aF-1.0
aa(lp347
g148
aF-1.0
aa(lp348
g151
aFnan
aatp349
Rp350
aa(lp351
g19
ag0
((lp352
(lp353
g76
aF-1.0
aa(lp354
g78
aF-1.0
aa(lp355
g80
aF-1.0
aa(lp356
g82
aF-1.0
aa(lp357
g85
aF-1.0
aa(lp358
g87
aF-1.0
aa(lp359
g89
aF-1.0
aa(lp360
g91
aF-1.0
aa(lp361
g94
aF-1.0
aa(lp362
g96
aF-1.0
aa(lp363
g98
aF-1.0
aa(lp364
g100
aF-1.0
aa(lp365
g103
aF-1.0
aa(lp366
g105
aF-1.0
aa(lp367
g107
aF-1.0
aa(lp368
g109
aF-1.0
aa(lp369
g112
aF-1.0
aa(lp370
g114
aF-1.0
aa(lp371
g116
aF-1.0
aa(lp372
g118
aF-1.0
aa(lp373
g121
aF-1.0
aa(lp374
g123
aF-1.0
aa(lp375
g125
aF-1.0
aa(lp376
g127
aF-1.0
aa(lp377
g130
aF-1.0
aa(lp378
g132
aF-1.0
aa(lp379
g134
aF-1.0
aa(lp380
g136
aF-1.0
aa(lp381
g139
aF-1.0
aa(lp382
g141
aF-1.0
aa(lp383
g143
aF-1.0
aa(lp384
g145
aF-1.0
aa(lp385
g148
aF-1.0
aa(lp386
g151
aF-1.0
aatp387
Rp388
aa(lp389
g24
ag0
((lp390
(lp391
g76
aFnan
aa(lp392
g78
aFnan
aa(lp393
g80
aFnan
aa(lp394
g82
aFnan
aa(lp395
g85
aFnan
aa(lp396
g87
aFnan
aa(lp397
g89
aFnan
aa(lp398
g91
aFnan
aa(lp399
g94
aFnan
aa(lp400
g96
aFnan
aa(lp401
g98
aFnan
aa(lp402
g100
aFnan
aa(lp403
g103
aFnan
aa(lp404
g105
aFnan
aa(lp405
g107
aFnan
aa(lp406
g109
aFnan
aa(lp407
g112
aFnan
aa(lp408
g114
aFnan
aa(lp409
g116
aFnan
aa(lp410
g118
aFnan
aa(lp411
g121
aFnan
aa(lp412
g123
aFnan
aa(lp413
g125
aFnan
aa(lp414
g127
aFnan
aa(lp415
g130
aFnan
aa(lp416
g132
aFnan
aa(lp417
g134
aFnan
aa(lp418
g136
aFnan
aa(lp419
g139
aFnan
aa(lp420
g141
aFnan
aa(lp421
g143
aFnan
aa(lp422
g145
aFnan
aa(lp423
g148
aFnan
aa(lp424
g151
aFnan
aatp425
Rp426
aatp427
Rp428
aa(lp429
g31
ag0
((lp430
(lp431
g9
ag0
((lp432
(lp433
g76
aF22.336113090687913
aa(lp434
g78
aF15.088500288135855
aa(lp435
g80
aF12.832200670576054
aa(lp436
g82
aF13.021550000453287
aa(lp437
g85
aF22.93758486552266
aa(lp438
g87
aF14.311092517884283
aa(lp439
g89
aF11.033129863056768
aa(lp440
g91
aF10.981082405951899
aa(lp441
g94
aF23.798190195488502
aa(lp442
g96
aF13.649012969478976
aa(lp443
g98
aF10.907601661594606
aa(lp444
g100
aF11.171214070594642
aa(lp445
g103
aF17.895397217574967
aa(lp446
g105
aF14.551081267660646
aa(lp447
g107
aF12.5778024967331
aa(lp448
g109
aF12.445061101841622
aa(lp449
g112
aF13.206243665290883
aa(lp450
g114
aF12.20694130825678
aa(lp451
g116
aF9.920356926982524
aa(lp452
g118
aF10.386277726893695
aa(lp453
g121
aF14.959628432770677
aa(lp454
g123
aF13.523370972539338
aa(lp455
g125
aF11.709352407235226
aa(lp456
g127
aF11.515921489526628
aa(lp457
g130
aF17.92707382439026
aa(lp458
g132
aF22.236874503199694
aa(lp459
g134
aF20.50926851262806
aa(lp460
g136
aF20.66019589132219
aa(lp461
g139
aF17.151852993791515
aa(lp462
g141
aF12.302632962212197
aa(lp463
g143
aF9.462637864600026
aa(lp464
g145
aF9.71670663743888
aa(lp465
g148
aF11.646049501791945
aa(lp466
g151
aF11.557552919505905
aatp467
Rp468
aa(lp469
g14
ag0
((lp470
(lp471
g76
aF0.0
aa(lp472
g78
aF0.0
aa(lp473
g80
aF0.0
aa(lp474
g82
aF0.0
aa(lp475
g85
aF0.0
aa(lp476
g87
aF0.0
aa(lp477
g89
aF0.0
aa(lp478
g91
aF0.0
aa(lp479
g94
aF0.0
aa(lp480
g96
aF0.0
aa(lp481
g98
aF0.0
aa(lp482
g100
aF0.0
aa(lp483
g103
aF0.0
aa(lp484
g105
aF0.0
aa(lp485
g107
aF0.0
aa(lp486
g109
aF0.0
aa(lp487
g112
aF0.0
aa(lp488
g114
aF0.0
aa(lp489
g116
aF0.0
aa(lp490
g118
aF0.0
aa(lp491
g121
aF0.0
aa(lp492
g123
aF0.0
aa(lp493
g125
aF0.0
aa(lp494
g127
aF0.0
aa(lp495
g130
aF0.0
aa(lp496
g132
aF0.0
aa(lp497
g134
aF0.0
aa(lp498
g136
aF0.0
aa(lp499
g139
aF0.0
aa(lp500
g141
aF0.0
aa(lp501
g143
aF0.0
aa(lp502
g145
aF0.0
aa(lp503
g148
aF0.0
aa(lp504
g151
aFnan
aatp505
Rp506
aa(lp507
g19
ag0
((lp508
(lp509
g76
aF0.0
aa(lp510
g78
aF0.0
aa(lp511
g80
aF0.0
aa(lp512
g82
aF0.0
aa(lp513
g85
aF0.0
aa(lp514
g87
aF0.0
aa(lp515
g89
aF0.0
aa(lp516
g91
aF0.0
aa(lp517
g94
aF0.0
aa(lp518
g96
aF0.0
aa(lp519
g98
aF0.0
aa(lp520
g100
aF0.0
aa(lp521
g103
aF0.0
aa(lp522
g105
aF0.0
aa(lp523
g107
aF0.0
aa(lp524
g109
aF0.0
aa(lp525
g112
aF0.0
aa(lp526
g114
aF0.0
aa(lp527
g116
aF0.0
aa(lp528
g118
aF0.0
aa(lp529
g121
aF0.0
aa(lp530
g123
aF0.0
aa(lp531
g125
aF0.0
aa(lp532
g127
aF0.0
aa(lp533
g130
aF0.0
aa(lp534
g132
aF0.0
aa(lp535
g134
aF0.0
aa(lp536
g136
aF0.0
aa(lp537
g139
aF0.0
aa(lp538
g141
aF0.0
aa(lp539
g143
aF0.0
aa(lp540
g145
aF0.0
aa(lp541
g148
aF0.0
aa(lp542
g151
aF0.0
aatp543
Rp544
aa(lp545
g24
ag0
((lp546
(lp547
g76
aFnan
aa(lp548
g78
aFnan
aa(lp549
g80
aFnan
aa(lp550
g82
aFnan
aa(lp551
g85
aFnan
aa(lp552
g87
aFnan
aa(lp553
g89
aFnan
aa(lp554
g91
aFnan
aa(lp555
g94
aFnan
aa(lp556
g96
aFnan
aa(lp557
g98
aFnan
aa(lp558
g100
aFnan
aa(lp559
g103
aFnan
aa(lp560
g105
aFnan
aa(lp561
g107
aFnan
aa(lp562
g109
aFnan
aa(lp563
g112
aFnan
aa(lp564
g114
aFnan
aa(lp565
g116
aFnan
aa(lp566
g118
aFnan
aa(lp567
g121
aFnan
aa(lp568
g123
aFnan
aa(lp569
g125
aFnan
aa(lp570
g127
aFnan
aa(lp571
g130
aFnan
aa(lp572
g132
aFnan
aa(lp573
g134
aFnan
aa(lp574
g136
aFnan
aa(lp575
g139
aFnan
aa(lp576
g141
aFnan
aa(lp577
g143
aFnan
aa(lp578
g145
aFnan
aa(lp579
g148
aFnan
aa(lp580
g151
aFnan
aatp581
Rp582
aatp583
Rp584
aa(lp585
g52
ag0
((lp586
(lp587
g9
ag0
((lp588
(lp589
g76
a(lp590
F67.891
aF53.722
aF52.572
aF35.39
aF36.46
aF27.371
aF23.49
aF36.52
aF73.86
aF62.862
aF65.792
aF38.521
aF25.411
aF28.37
aF62.761
aF35.561
aF48.63
aF47.63
aF33.472
aF88.022
aF68.801
aF47.662
aF59.742
aF55.741
aF48.611
aF45.672
aF70.783
aF76.972
aF83.161
aF117.371
aF97.101
aF51.58
aF29.41
aF28.44
aF29.4
aF31.441
aF26.321
aF31.411
aaa(lp591
g78
a(lp592
F67.891
aF53.722
aF52.572
aF35.39
aF36.46
aF27.371
aF23.49
aF36.52
aF52.692
aF60.641
aF38.521
aF25.411
aF28.37
aF62.761
aF35.561
aF48.63
aF43.551
aF46.76
aF27.392
aF41.592
aF63.94
aF65.821
aF54.751
aF49.752
aF65.841
aF75.921
aF54.73
aF31.44
aF27.371
aF31.43
aF30.4
aF24.331
aF31.42
aaa(lp593
g80
a(lp594
F51.63
aF35.39
aF36.46
aF27.371
aF23.49
aF36.52
aF52.692
aF60.641
aF38.521
aF25.411
aF28.37
aF62.761
aF35.561
aF48.63
aF46.871
aF25.47
aF49.79
aF39.67
aF42.71
aF44.871
aF38.69
aF44.7
aF25.42
aF41.592
aF63.94
aF65.821
aF54.751
aF49.752
aF65.841
aF36.411
aF27.411
aF25.301
aF32.59
aF32.47
aF28.44
aF29.4
aF23.301
aF30.431
aF28.401
aaa(lp595
g82
a(lp596
F51.63
aF35.39
aF36.46
aF27.371
aF23.49
aF36.52
aF52.692
aF60.641
aF38.521
aF25.411
aF28.37
aF62.761
aF35.561
aF48.63
aF46.871
aF25.47
aF49.79
aF39.67
aF42.71
aF44.871
aF38.69
aF44.7
aF25.42
aF41.592
aF63.94
aF65.821
aF54.751
aF49.752
aF65.841
aF36.411
aF27.411
aF25.301
aF32.59
aF31.43
aF25.42
aF29.4
aF20.271
aF31.441
aF28.401
aaa(lp597
g85
a(lp598
F40.632
aF69.871
aF58.72
aF66.761
aF51.801
aF55.861
aF35.39
aF36.46
aF27.371
aF23.49
aF36.52
aF73.86
aF62.862
aF83.731
aF48.681
aF55.911
aF40.651
aF48.64
aF46.831
aF63.893
aF117.371
aF97.101
aF51.58
aF29.42
aF28.44
aF29.4
aF20.271
aF26.321
aF31.411
aaa(lp599
g87
a(lp600
F40.632
aF69.871
aF58.72
aF66.761
aF51.801
aF55.861
aF35.39
aF36.46
aF27.371
aF23.49
aF36.52
aF45.702
aF55.59
aF48.681
aF55.911
aF40.651
aF48.64
aF38.64
aF36.621
aF50.752
aF67.8
aF50.631
aF63.91
aF50.75
aF75.921
aF54.73
aF31.44
aF29.371
aF31.41
aF33.471
aF25.321
aF26.361
aaa(lp601
g89
a(lp602
F49.691
aF50.681
aF52.78
aF49.74
aF35.39
aF36.46
aF27.371
aF23.49
aF36.52
aF45.702
aF55.59
aF48.681
aF55.911
aF40.651
aF48.64
aF46.871
aF25.47
aF49.79
aF39.67
aF42.71
aF44.871
aF38.69
aF50.77
aF25.42
aF50.631
aF63.91
aF50.75
aF36.411
aF27.411
aF25.301
aF32.59
aF32.47
aF28.44
aF33.39
aF23.301
aF25.361
aF31.411
aaa(lp603
g91
a(lp604
F49.691
aF50.681
aF52.78
aF49.74
aF35.39
aF36.46
aF27.371
aF23.49
aF36.52
aF45.702
aF55.59
aF48.681
aF55.911
aF40.651
aF48.64
aF46.871
aF25.47
aF49.79
aF39.67
aF42.71
aF44.871
aF38.69
aF50.77
aF25.42
aF50.631
aF63.91
aF50.75
aF36.411
aF27.411
aF25.301
aF32.59
aF32.47
aF28.4
aF29.4
aF28.411
aF26.321
aF28.401
aaa(lp605
g94
a(lp606
F67.891
aF53.722
aF52.572
aF35.39
aF36.46
aF27.371
aF23.49
aF36.52
aF73.86
aF62.862
aF65.792
aF38.521
aF25.411
aF28.37
aF62.761
aF35.561
aF48.63
aF47.63
aF33.472
aF88.022
aF68.801
aF63.893
aF83.161
aF117.371
aF97.101
aF51.58
aF28.37
aF28.4
aF29.4
aF28.411
aF26.321
aF31.411
aaa(lp607
g96
a(lp608
F67.891
aF53.722
aF52.572
aF35.39
aF36.46
aF27.371
aF23.49
aF36.52
aF52.692
aF60.641
aF38.521
aF25.411
aF28.37
aF62.761
aF35.561
aF48.63
aF43.551
aF46.76
aF27.392
aF50.631
aF67.731
aF54.73
aF31.42
aF26.481
aF37.45
aF32.47
aF26.291
aF29.401
aaa(lp609
g98
a(lp610
F51.63
aF35.39
aF36.46
aF27.371
aF23.49
aF36.52
aF52.692
aF60.641
aF38.521
aF25.411
aF28.37
aF62.761
aF35.561
aF48.63
aF46.871
aF25.47
aF49.79
aF39.67
aF42.71
aF44.871
aF38.69
aF50.77
aF25.42
aF50.631
aF36.411
aF27.411
aF25.301
aF32.59
aF28.37
aF28.4
aF29.4
aF28.411
aF29.401
aF31.411
aaa(lp611
g100
a(lp612
F51.63
aF35.39
aF36.46
aF27.371
aF23.49
aF36.52
aF52.692
aF60.641
aF38.521
aF25.411
aF28.37
aF62.761
aF35.561
aF48.63
aF46.871
aF25.47
aF49.79
aF39.67
aF42.71
aF44.871
aF38.69
aF50.77
aF25.42
aF50.631
aF36.411
aF27.411
aF25.301
aF32.59
aF29.41
aF28.391
aF33.45
aF20.271
aF29.401
aF28.401
aaa(lp613
g103
a(lp614
F67.891
aF53.722
aF52.572
aF35.39
aF36.46
aF27.371
aF64.711
aF62.862
aF68.811
aF74.872
aF38.521
aF25.411
aF62.761
aF35.561
aF48.63
aF47.63
aF33.472
aF88.022
aF68.801
aF47.662
aF59.742
aF55.741
aF48.611
aF45.672
aF70.783
aF76.972
aF83.161
aF57.632
aF40.451
aF31.43
aF28.4
aF34.43
aF23.301
aF29.401
aF31.411
aaa(lp615
g105
a(lp616
F67.891
aF53.722
aF52.572
aF35.39
aF36.46
aF27.371
aF52.692
aF60.641
aF38.521
aF25.411
aF62.761
aF35.561
aF48.63
aF43.551
aF46.76
aF27.392
aF41.592
aF63.94
aF65.821
aF54.751
aF49.752
aF65.841
aF75.921
aF52.592
aF39.472
aF30.4
aF34.5
aF31.43
aF32.51
aF25.321
aF27.41
aaa(lp617
g107
a(lp618
F51.63
aF35.39
aF36.46
aF27.371
aF52.692
aF60.641
aF38.521
aF25.411
aF62.761
aF35.561
aF48.63
aF46.871
aF25.47
aF49.79
aF33.461
aF42.71
aF44.871
aF38.69
aF50.77
aF25.42
aF41.592
aF63.94
aF65.821
aF54.751
aF49.752
aF65.841
aF36.411
aF45.63
aF27.411
aF32.59
aF31.43
aF28.44
aF29.4
aF31.411
aF29.401
aF28.401
aaa(lp619
g109
a(lp620
F51.63
aF35.39
aF36.46
aF27.371
aF52.692
aF60.641
aF38.521
aF25.411
aF62.761
aF35.561
aF48.63
aF46.871
aF25.47
aF49.79
aF39.67
aF42.71
aF44.871
aF38.69
aF50.77
aF25.42
aF41.592
aF63.94
aF65.821
aF54.751
aF49.752
aF65.841
aF36.411
aF45.63
aF27.411
aF32.59
aF29.41
aF28.44
aF34.43
aF28.411
aF29.401
aF31.411
aaa(lp621
g112
a(lp622
F69.871
aF49.611
aF52.572
aF46.552
aF36.46
aF27.371
aF64.711
aF62.862
aF55.911
aF35.561
aF42.651
aF40.651
aF48.64
aF46.831
aF34.522
aF63.893
aF57.632
aF35.461
aF31.43
aF25.42
aF29.4
aF35.6
aF31.411
aaa(lp623
g114
a(lp624
F69.871
aF49.611
aF52.572
aF46.552
aF36.46
aF27.371
aF45.702
aF55.911
aF35.561
aF42.651
aF40.651
aF48.64
aF38.64
aF37.601
aF51.702
aF45.662
aF27.392
aF63.91
aF49.531
aF45.622
aF52.611
aF38.591
aF67.731
aF52.592
aF25.281
aF31.44
aF26.481
aF37.45
aF24.44
aF33.56
aF29.401
aaa(lp625
g116
a(lp626
F49.691
aF50.681
aF49.74
aF36.46
aF27.371
aF45.702
aF55.911
aF35.561
aF42.651
aF40.651
aF48.64
aF46.871
aF25.47
aF49.79
aF39.67
aF42.71
aF29.44
aF38.69
aF50.77
aF25.42
aF63.91
aF49.531
aF45.622
aF52.611
aF38.591
aF36.411
aF45.63
aF27.411
aF25.301
aF32.59
aF28.421
aF32.47
aF28.4
aF34.43
aF35.6
aF31.411
aaa(lp627
g118
a(lp628
F49.691
aF50.681
aF49.74
aF36.46
aF27.371
aF45.702
aF55.911
aF35.561
aF42.651
aF40.651
aF48.64
aF46.871
aF25.47
aF44.67
aF34.481
aF42.71
aF29.44
aF38.69
aF50.77
aF25.42
aF63.91
aF49.531
aF45.622
aF52.611
aF38.591
aF36.411
aF45.63
aF27.411
aF25.301
aF32.59
aF28.421
aF28.37
aF25.42
aF29.4
aF28.401
aaa(lp629
g121
a(lp630
F67.891
aF53.722
aF51.801
aF52.572
aF46.552
aF35.39
aF36.46
aF27.371
aF64.711
aF62.862
aF38.521
aF25.411
aF62.761
aF35.561
aF40.651
aF48.63
aF47.63
aF34.522
aF68.801
aF48.611
aF76.972
aF57.632
aF35.461
aF28.37
aF25.42
aF34.43
aF28.411
aF28.401
aaa(lp631
g123
a(lp632
F67.891
aF53.722
aF51.801
aF52.572
aF46.552
aF35.39
aF36.46
aF27.371
aF60.641
aF38.521
aF25.411
aF62.761
aF35.561
aF40.651
aF48.63
aF45.571
aF34.552
aF50.631
aF49.531
aF44.67
aF65.841
aF71.841
aF52.592
aF25.281
aF31.42
aF26.481
aF37.45
aF26.33
aF33.56
aF29.401
aaa(lp633
g125
a(lp634
F51.63
aF49.74
aF35.39
aF36.46
aF27.371
aF60.641
aF38.521
aF25.411
aF62.761
aF35.561
aF40.651
aF48.63
aF46.871
aF25.47
aF49.79
aF53.881
aF42.71
aF29.44
aF38.69
aF25.42
aF50.631
aF49.531
aF44.67
aF65.841
aF36.411
aF45.63
aF27.411
aF25.301
aF32.59
aF28.421
aF32.47
aF28.4
aF30.44
aF20.271
aF35.6
aF31.411
aaa(lp635
g127
a(lp636
F51.63
aF49.74
aF35.39
aF36.46
aF27.371
aF60.641
aF38.521
aF25.411
aF62.761
aF35.561
aF40.651
aF48.63
aF46.871
aF25.47
aF49.79
aF32.63
aF42.71
aF29.44
aF38.69
aF25.42
aF50.631
aF49.531
aF44.67
aF65.841
aF36.411
aF45.63
aF27.411
aF25.301
aF32.59
aF28.421
aF28.37
aF28.391
aF29.4
aF28.411
aF28.401
aaa(lp637
g130
a(lp638
F67.891
aF52.572
aF31.32
aF52.77
aF48.651
aF64.711
aF38.521
aF25.411
aF28.37
aF62.761
aF35.561
aF48.63
aF36.611
aF58.961
aF72.901
aF53.871
aF87.962
aF79.982
aF44.52
aF62.731
aF32.48
aF38.5
aF21.34
aaa(lp639
g132
a(lp640
F67.891
aF52.572
aF31.32
aF52.77
aF48.651
aF38.521
aF25.411
aF28.37
aF62.761
aF35.561
aF48.63
aF59.791
aF50.631
aF49.531
aF114.62
aF96.231
aF55.761
aF34.43
aF42.561
aF29.401
aaa(lp641
g134
a(lp642
F51.63
aF31.32
aF52.77
aF48.651
aF38.521
aF25.411
aF28.37
aF62.761
aF35.561
aF48.63
aF27.481
aF34.531
aF37.631
aF53.881
aF34.59
aF37.811
aF50.631
aF49.531
aF114.62
aF96.231
aF47.661
aF47.611
aF60.78
aF28.421
aF32.48
aF38.5
aF21.34
aaa(lp643
g136
a(lp644
F51.63
aF31.32
aF52.77
aF48.651
aF38.521
aF25.411
aF28.37
aF62.761
aF35.561
aF48.63
aF27.481
aF25.55
aF37.631
aF53.881
aF43.761
aF37.811
aF50.631
aF49.531
aF114.62
aF96.231
aF47.661
aF47.611
aF60.78
aF28.421
aF32.48
aF38.5
aF21.34
aaa(lp645
g139
a(lp646
F49.521
aF33.51
aF29.461
aF54.681
aF41.521
aF37.601
aF40.711
aF41.701
aF32.47
aF73.86
aF62.862
aF65.792
aF79.691
aF34.52
aF48.681
aF55.911
aF60.701
aF54.86
aF42.651
aF48.64
aF49.561
aF46.831
aF88.022
aF71.992
aF55.741
aF63.893
aF97.101
aF51.58
aF52.501
aF48.641
aF41.481
aF28.37
aF38.5
aF28.411
aF29.57
aF25.361
aaa(lp647
g141
a(lp648
F49.521
aF33.51
aF29.461
aF54.681
aF41.521
aF37.601
aF40.711
aF41.701
aF32.47
aF52.692
aF34.52
aF48.681
aF55.911
aF60.701
aF54.86
aF42.651
aF47.592
aF54.612
aF69.063
aF71.841
aF54.73
aF49.491
aF28.411
aF48.612
aF31.42
aF41.561
aF26.33
aF26.331
aaa(lp649
g143
a(lp650
F52.63
aF47.781
aF39.58
aF33.51
aF29.461
aF54.681
aF41.521
aF37.601
aF40.711
aF41.701
aF32.47
aF52.692
aF34.52
aF48.681
aF55.911
aF60.701
aF54.86
aF42.651
aF48.64
aF49.561
aF46.871
aF25.47
aF49.79
aF39.67
aF42.71
aF29.44
aF38.69
aF50.77
aF25.42
aF44.761
aF35.51
aF43.581
aF36.411
aF30.37
aF31.571
aF32.561
aF34.61
aF31.43
aF38.5
aF23.301
aF29.57
aF30.431
aaa(lp651
g145
a(lp652
F52.63
aF47.781
aF39.58
aF33.51
aF29.461
aF54.681
aF41.521
aF37.601
aF40.711
aF41.701
aF32.47
aF52.692
aF34.52
aF48.681
aF55.911
aF60.701
aF54.86
aF42.651
aF48.64
aF49.561
aF46.871
aF25.47
aF49.79
aF39.67
aF42.71
aF29.44
aF38.69
aF50.77
aF25.42
aF44.761
aF35.51
aF43.581
aF36.411
aF30.37
aF31.571
aF32.561
aF34.61
aF32.47
aF38.5
aF20.271
aF25.361
aaa(lp653
g148
a(lp654
F44.732
aF56.551
aF58.762
aF39.512
aF48.56
aF33.432
aF58.751
aF62.782
aF58.731
aF64.712
aF58.712
aF53.542
aF28.37
aF60.721
aF44.7
aF47.592
aF49.69
aF66.932
aF64.922
aF36.481
aF39.472
aF31.371
aF39.491
aF40.392
aaa(lp655
g151
a(lp656
F31.71
aF23.51
aF27.54
aF36.7
aF41.77
aF21.42
aF26.57
aF21.63
aF23.66
aF37.85
aF33.6
aF41.77
aF45.81
aF34.57
aF38.83
aF23.43
aF47.97
aF50.85
aF65.14
aF31.77
aF30.74
aF34.55
aF24.64
aF54.19
aF39.91
aF61.19
aF54.04
aF25.35
aF25.56
aF32.67
aF39.55
aF28.4
aF34.74
aF35.6
aF26.5
aF42.6
aF14.41
aF29.55
aF22.42
aF21.39
aaatp657
Rp658
aa(lp659
g14
ag0
((lp660
(lp661
g76
a(lp662
F-1.0
aF-1.0
aF-1.0
aF-1.0
aF-1.0
aF-1.0
aF-1.0
aF-1.0
aF-1.0
aF-1.0
aF-1.0
aF-1.0
aF-1.0
aF-1.0
aF-1.0
aF-1.0
aF-1.0
aF-1.0
aF-1.0
aF-1.0
aF-1.0
aF-1.0
aF-1.0
aF-1.0
aF-1.0
aF-1.0
aaa(lp663
g78
a(lp664
F-1.0
aF-1.0
aF-1.0
aF-1.0
aF-1.0
aF-1.0
aF-1.0
aF-1.0
aF-1.0
aF-1.0
aF-1.0
aF-1.0
aF-1.0
aF-1.0
aF-1.0
aF-1.0
aF-1.0
aF-1.0
aF-1.0
aF-1.0
aF-1.0
aF-1.0
aF-1.0
aF-1.0
aF-1.0
aF-1.0
aF-1.0
aF-1.0
aF-1.0
aaa(lp665
g80
a(lp666
F-1.0
aF-1.0
aF-1.0
aF-1.0
aF-1.0
aF-1.0
aF-1.0
aF-1.0
aF-1.0
aF-1.0
aF-1.0
aF-1.0
aF-1.0
aF-1.0
aF-1.0
aF-1.0
aaa(lp667
g82
a(lp668
F-1.0
aF-1.0
aF-1.0
aF-1.0
aF-1.0
aF-1.0
aF-1.0
aF-1.0
aF-1.0
aF-1.0
aF-1.0
aF-1.0
aF-1.0
aF-1.0
aF-1.0
aF-1.0
aaa(lp669
g85
a(lp670
F-1.0
aF-1.0
aF-1.0
aF-1.0
aF-1.0
aF-1.0
aF-1.0
aF-1.0
aF-1.0
aF-1.0
aF-1.0
aF-1.0
aF-1.0
aF-1.0
aF-1.0
aF-1.0
aF-1.0
aF-1.0
aF-1.0
aF-1.0
aF-1.0
aF-1.0
aF-1.0
aF-1.0
aF-1.0
aF-1.0
aF-1.0
aF-1.0
aF-1.0
aaa(lp671
g87
a(lp672
F-1.0
aF-1.0
aF-1.0
aF-1.0
aF-1.0
aF-1.0
aF-1.0
aF-1.0
aF-1.0
aF-1.0
aF-1.0
aF-1.0
aF-1.0
aF-1.0
aF-1.0
aF-1.0
aF-1.0
aF-1.0
aF-1.0
aF-1.0
aF-1.0
aF-1.0
aF-1.0
aF-1.0
aF-1.0
aaa(lp673
g89
a(lp674
F-1.0
aF-1.0
aF-1.0
aF-1.0
aF-1.0
aF-1.0
aF-1.0
aF-1.0
aF-1.0
aF-1.0
aF-1.0
aF-1.0
aF-1.0
aaa(lp675
g91
a(lp676
F-1.0
aF-1.0
aF-1.0
aF-1.0
aF-1.0
aF-1.0
aF-1.0
aF-1.0
aF-1.0
aF-1.0
aF-1.0
aF-1.0
aF-1.0
aaa(lp677
g94
a(lp678
F-1.0
aF-1.0
aF-1.0
aF-1.0
aF-1.0
aF-1.0
aF-1.0
aF-1.0
aF-1.0
aF-1.0
aF-1.0
aF-1.0
aF-1.0
aF-1.0
aF-1.0
aF-1.0
aF-1.0
aF-1.0
aF-1.0
aF-1.0
aF-1.0
aF-1.0
aF-1.0
aF-1.0
aF-1.0
aF-1.0
aF-1.0
aF-1.0
aF-1.0
aaa(lp679
g96
a(lp680
F-1.0
aF-1.0
aF-1.0
aF-1.0
aF-1.0
aF-1.0
aF-1.0
aF-1.0
aF-1.0
aF-1.0
aF-1.0
aF-1.0
aF-1.0
aF-1.0
aF-1.0
aF-1.0
aF-1.0
aF-1.0
aF-1.0
aF-1.0
aF-1.0
aF-1.0
aF-1.0
aF-1.0
aF-1.0
aF-1.0
aF-1.0
aF-1.0
aaa(lp681
g98
a(lp682
F-1.0
aF-1.0
aF-1.0
aF-1.0
aF-1.0
aF-1.0
aF-1.0
aF-1.0
aF-1.0
aF-1.0
aF-1.0
aF-1.0
aF-1.0
aF-1.0
aF-1.0
aaa(lp683
g100
a(lp684
F-1.0
aF-1.0
aF-1.0
aF-1.0
aF-1.0
aF-1.0
aF-1.0
aF-1.0
aF-1.0
aF-1.0
aF-1.0
aF-1.0
aF-1.0
aF-1.0
aF-1.0
aaa(lp685
g103
a(lp686
F-1.0
aF-1.0
aF-1.0
aF-1.0
aF-1.0
aF-1.0
aF-1.0
aF-1.0
aF-1.0
aF-1.0
aF-1.0
aF-1.0
aF-1.0
aF-1.0
aF-1.0
aF-1.0
aF-1.0
aF-1.0
aF-1.0
aF-1.0
aF-1.0
aF-1.0
aF-1.0
aF-1.0
aF-1.0
aF-1.0
aF-1.0
aF-1.0
aaa(lp687
g105
a(lp688
F-1.0
aF-1.0
aF-1.0
aF-1.0
aF-1.0
aF-1.0
aF-1.0
aF-1.0
aF-1.0
aF-1.0
aF-1.0
aF-1.0
aF-1.0
aF-1.0
aF-1.0
aF-1.0
aF-1.0
aF-1.0
aF-1.0
aF-1.0
aF-1.0
aF-1.0
aF-1.0
aF-1.0
aF-1.0
aF-1.0
aF-1.0
aF-1.0
aaa(lp689
g107
a(lp690
F-1.0
aF-1.0
aF-1.0
aF-1.0
aF-1.0
aF-1.0
aF-1.0
aF-1.0
aF-1.0
aF-1.0
aF-1.0
aF-1.0
aF-1.0
aF-1.0
aF-1.0
aF-1.0
aF-1.0
aaa(lp691
g109
a(lp692
F-1.0
aF-1.0
aF-1.0
aF-1.0
aF-1.0
aF-1.0
aF-1.0
aF-1.0
aF-1.0
aF-1.0
aF-1.0
aF-1.0
aF-1.0
aF-1.0
aF-1.0
aF-1.0
aF-1.0
aaa(lp693
g112
a(lp694
F-1.0
aF-1.0
aF-1.0
aF-1.0
aF-1.0
aF-1.0
aF-1.0
aF-1.0
aF-1.0
aF-1.0
aF-1.0
aF-1.0
aF-1.0
aF-1.0
aF-1.0
aF-1.0
aF-1.0
aF-1.0
aF-1.0
aF-1.0
aF-1.0
aF-1.0
aF-1.0
aF-1.0
aF-1.0
aF-1.0
aF-1.0
aF-1.0
aF-1.0
aF-1.0
aF-1.0
aF-1.0
aaa(lp695
g114
a(lp696
F-1.0
aF-1.0
aF-1.0
aF-1.0
aF-1.0
aF-1.0
aF-1.0
aF-1.0
aF-1.0
aF-1.0
aF-1.0
aF-1.0
aF-1.0
aF-1.0
aF-1.0
aF-1.0
aF-1.0
aF-1.0
aF-1.0
aF-1.0
aF-1.0
aF-1.0
aF-1.0
aaa(lp697
g116
a(lp698
F-1.0
aF-1.0
aF-1.0
aF-1.0
aF-1.0
aF-1.0
aF-1.0
aF-1.0
aF-1.0
aF-1.0
aF-1.0
aF-1.0
aF-1.0
aF-1.0
aF-1.0
aaa(lp699
g118
a(lp700
F-1.0
aF-1.0
aF-1.0
aF-1.0
aF-1.0
aF-1.0
aF-1.0
aF-1.0
aF-1.0
aF-1.0
aF-1.0
aF-1.0
aF-1.0
aF-1.0
aF-1.0
aF-1.0
aaa(lp701
g121
a(lp702
F-1.0
aF-1.0
aF-1.0
aF-1.0
aF-1.0
aF-1.0
aF-1.0
aF-1.0
aF-1.0
aF-1.0
aF-1.0
aF-1.0
aF-1.0
aF-1.0
aF-1.0
aF-1.0
aF-1.0
aF-1.0
aF-1.0
aF-1.0
aF-1.0
aF-1.0
aF-1.0
aF-1.0
aF-1.0
aF-1.0
aF-1.0
aF-1.0
aF-1.0
aF-1.0
aF-1.0
aF-1.0
aaa(lp703
g123
a(lp704
F-1.0
aF-1.0
aF-1.0
aF-1.0
aF-1.0
aF-1.0
aF-1.0
aF-1.0
aF-1.0
aF-1.0
aF-1.0
aF-1.0
aF-1.0
aF-1.0
aF-1.0
aF-1.0
aF-1.0
aF-1.0
aF-1.0
aF-1.0
aF-1.0
aF-1.0
aF-1.0
aF-1.0
aF-1.0
aaa(lp705
g125
a(lp706
F-1.0
aF-1.0
aF-1.0
aF-1.0
aF-1.0
aF-1.0
aF-1.0
aF-1.0
aF-1.0
aF-1.0
aF-1.0
aF-1.0
aF-1.0
aF-1.0
aaa(lp707
g127
a(lp708
F-1.0
aF-1.0
aF-1.0
aF-1.0
aF-1.0
aF-1.0
aF-1.0
aF-1.0
aF-1.0
aF-1.0
aF-1.0
aF-1.0
aF-1.0
aF-1.0
aF-1.0
aaa(lp709
g130
a(lp710
F-1.0
aF-1.0
aF-1.0
aF-1.0
aF-1.0
aF-1.0
aF-1.0
aF-1.0
aF-1.0
aF-1.0
aF-1.0
aF-1.0
aF-1.0
aF-1.0
aF-1.0
aF-1.0
aF-1.0
aF-1.0
aF-1.0
aF-1.0
aF-1.0
aF-1.0
aF-1.0
aF-1.0
aF-1.0
aF-1.0
aF-1.0
aF-1.0
aF-1.0
aF-1.0
aF-1.0
aF-1.0
aF-1.0
aaa(lp711
g132
a(lp712
F-1.0
aF-1.0
aF-1.0
aF-1.0
aF-1.0
aF-1.0
aF-1.0
aF-1.0
aF-1.0
aF-1.0
aF-1.0
aF-1.0
aF-1.0
aF-1.0
aF-1.0
aF-1.0
aF-1.0
aF-1.0
aF-1.0
aF-1.0
aF-1.0
aF-1.0
aF-1.0
aF-1.0
aF-1.0
aF-1.0
aF-1.0
aF-1.0
aF-1.0
aF-1.0
aF-1.0
aaa(lp713
g134
a(lp714
F-1.0
aF-1.0
aF-1.0
aF-1.0
aF-1.0
aF-1.0
aF-1.0
aF-1.0
aF-1.0
aF-1.0
aF-1.0
aF-1.0
aF-1.0
aF-1.0
aF-1.0
aF-1.0
aF-1.0
aF-1.0
aF-1.0
aF-1.0
aaa(lp715
g136
a(lp716
F-1.0
aF-1.0
aF-1.0
aF-1.0
aF-1.0
aF-1.0
aF-1.0
aF-1.0
aF-1.0
aF-1.0
aF-1.0
aF-1.0
aF-1.0
aF-1.0
aF-1.0
aF-1.0
aF-1.0
aF-1.0
aF-1.0
aF-1.0
aaa(lp717
g139
a(lp718
F-1.0
aF-1.0
aF-1.0
aF-1.0
aF-1.0
aF-1.0
aF-1.0
aF-1.0
aF-1.0
aF-1.0
aF-1.0
aF-1.0
aF-1.0
aF-1.0
aF-1.0
aF-1.0
aF-1.0
aF-1.0
aF-1.0
aF-1.0
aF-1.0
aF-1.0
aaa(lp719
g141
a(lp720
F-1.0
aF-1.0
aF-1.0
aF-1.0
aF-1.0
aF-1.0
aF-1.0
aF-1.0
aF-1.0
aF-1.0
aF-1.0
aF-1.0
aF-1.0
aF-1.0
aF-1.0
aF-1.0
aF-1.0
aF-1.0
aF-1.0
aF-1.0
aF-1.0
aF-1.0
aF-1.0
aaa(lp721
g143
a(lp722
F-1.0
aF-1.0
aF-1.0
aF-1.0
aF-1.0
aF-1.0
aaa(lp723
g145
a(lp724
F-1.0
aF-1.0
aF-1.0
aF-1.0
aF-1.0
aF-1.0
aF-1.0
aaa(lp725
g148
a(lp726
F-1.0
aF-1.0
aF-1.0
aF-1.0
aF-1.0
aF-1.0
aF-1.0
aF-1.0
aF-1.0
aF-1.0
aF-1.0
aF-1.0
aF-1.0
aF-1.0
aF-1.0
aF-1.0
aF-1.0
aF-1.0
aF-1.0
aF-1.0
aF-1.0
aF-1.0
aF-1.0
aF-1.0
aF-1.0
aF-1.0
aF-1.0
aF-1.0
aF-1.0
aF-1.0
aF-1.0
aF-1.0
aF-1.0
aF-1.0
aaa(lp727
g151
a(lp728
aatp729
Rp730
aa(lp731
g19
ag0
((lp732
(lp733
g76
a(lp734
F-1.0
aF-1.0
aF-1.0
aF-1.0
aF-1.0
aF-1.0
aF-1.0
aF-1.0
aF-1.0
aF-1.0
aF-1.0
aF-1.0
aF-1.0
aF-1.0
aF-1.0
aF-1.0
aF-1.0
aF-1.0
aF-1.0
aF-1.0
aF-1.0
aF-1.0
aF-1.0
aF-1.0
aF-1.0
aF-1.0
aF-1.0
aF-1.0
aF-1.0
aF-1.0
aF-1.0
aF-1.0
aF-1.0
aF-1.0
aF-1.0
aF-1.0
aaa(lp735
g78
a(lp736
F-1.0
aF-1.0
aF-1.0
aF-1.0
aF-1.0
aF-1.0
aF-1.0
aF-1.0
aF-1.0
aF-1.0
aF-1.0
aF-1.0
aF-1.0
aF-1.0
aF-1.0
aF-1.0
aF-1.0
aF-1.0
aF-1.0
aF-1.0
aF-1.0
aF-1.0
aF-1.0
aF-1.0
aF-1.0
aF-1.0
aF-1.0
aF-1.0
aF-1.0
aF-1.0
aF-1.0
aF-1.0
aF-1.0
aF-1.0
aF-1.0
aF-1.0
aF-1.0
aF-1.0
aaa(lp737
g80
a(lp738
F-1.0
aF-1.0
aF-1.0
aF-1.0
aF-1.0
aF-1.0
aF-1.0
aF-1.0
aF-1.0
aF-1.0
aF-1.0
aF-1.0
aF-1.0
aF-1.0
aF-1.0
aF-1.0
aF-1.0
aF-1.0
aF-1.0
aF-1.0
aF-1.0
aF-1.0
aF-1.0
aF-1.0
aF-1.0
aF-1.0
aF-1.0
aF-1.0
aF-1.0
aF-1.0
aF-1.0
aF-1.0
aF-1.0
aF-1.0
aF-1.0
aF-1.0
aF-1.0
aF-1.0
aF-1.0
aF-1.0
aF-1.0
aF-1.0
aF-1.0
aF-1.0
aF-1.0
aaa(lp739
g82
a(lp740
F-1.0
aF-1.0
aF-1.0
aF-1.0
aF-1.0
aF-1.0
aF-1.0
aF-1.0
aF-1.0
aF-1.0
aF-1.0
aF-1.0
aF-1.0
aF-1.0
aF-1.0
aF-1.0
aF-1.0
aF-1.0
aF-1.0
aF-1.0
aF-1.0
aF-1.0
aF-1.0
aF-1.0
aF-1.0
aF-1.0
aF-1.0
aF-1.0
aF-1.0
aF-1.0
aF-1.0
aF-1.0
aF-1.0
aF-1.0
aF-1.0
aF-1.0
aF-1.0
aF-1.0
aF-1.0
aF-1.0
aF-1.0
aF-1.0
aF-1.0
aF-1.0
aF-1.0
aaa(lp741
g85
a(lp742
F-1.0
aF-1.0
aF-1.0
aF-1.0
aF-1.0
aF-1.0
aF-1.0
aF-1.0
aF-1.0
aF-1.0
aF-1.0
aF-1.0
aF-1.0
aF-1.0
aF-1.0
aF-1.0
aF-1.0
aF-1.0
aF-1.0
aF-1.0
aF-1.0
aF-1.0
aF-1.0
aF-1.0
aF-1.0
aF-1.0
aF-1.0
aF-1.0
aF-1.0
aF-1.0
aF-1.0
aF-1.0
aF-1.0
aF-1.0
aF-1.0
aF-1.0
aF-1.0
aF-1.0
aF-1.0
aF-1.0
aF-1.0
aF-1.0
aaa(lp743
g87
a(lp744
F-1.0
aF-1.0
aF-1.0
aF-1.0
aF-1.0
aF-1.0
aF-1.0
aF-1.0
aF-1.0
aF-1.0
aF-1.0
aF-1.0
aF-1.0
aF-1.0
aF-1.0
aF-1.0
aF-1.0
aF-1.0
aF-1.0
aF-1.0
aF-1.0
aF-1.0
aF-1.0
aF-1.0
aF-1.0
aF-1.0
aF-1.0
aF-1.0
aF-1.0
aF-1.0
aF-1.0
aF-1.0
aF-1.0
aF-1.0
aF-1.0
aF-1.0
aF-1.0
aF-1.0
aF-1.0
aF-1.0
aF-1.0
aF-1.0
aF-1.0
aaa(lp745
g89
a(lp746
F-1.0
aF-1.0
aF-1.0
aF-1.0
aF-1.0
aF-1.0
aF-1.0
aF-1.0
aF-1.0
aF-1.0
aF-1.0
aF-1.0
aF-1.0
aF-1.0
aF-1.0
aF-1.0
aF-1.0
aF-1.0
aF-1.0
aF-1.0
aF-1.0
aF-1.0
aF-1.0
aF-1.0
aF-1.0
aF-1.0
aF-1.0
aF-1.0
aF-1.0
aF-1.0
aF-1.0
aF-1.0
aF-1.0
aF-1.0
aF-1.0
aF-1.0
aF-1.0
aF-1.0
aF-1.0
aF-1.0
aF-1.0
aF-1.0
aF-1.0
aF-1.0
aF-1.0
aF-1.0
aF-1.0
aF-1.0
aF-1.0
aF-1.0
aaa(lp747
g91
a(lp748
F-1.0
aF-1.0
aF-1.0
aF-1.0
aF-1.0
aF-1.0
aF-1.0
aF-1.0
aF-1.0
aF-1.0
aF-1.0
aF-1.0
aF-1.0
aF-1.0
aF-1.0
aF-1.0
aF-1.0
aF-1.0
aF-1.0
aF-1.0
aF-1.0
aF-1.0
aF-1.0
aF-1.0
aF-1.0
aF-1.0
aF-1.0
aF-1.0
aF-1.0
aF-1.0
aF-1.0
aF-1.0
aF-1.0
aF-1.0
aF-1.0
aF-1.0
aF-1.0
aF-1.0
aF-1.0
aF-1.0
aF-1.0
aF-1.0
aF-1.0
aF-1.0
aF-1.0
aF-1.0
aF-1.0
aF-1.0
aF-1.0
aF-1.0
aaa(lp749
g94
a(lp750
F-1.0
aF-1.0
aF-1.0
aF-1.0
aF-1.0
aF-1.0
aF-1.0
aF-1.0
aF-1.0
aF-1.0
aF-1.0
aF-1.0
aF-1.0
aF-1.0
aF-1.0
aF-1.0
aF-1.0
aF-1.0
aF-1.0
aF-1.0
aF-1.0
aF-1.0
aF-1.0
aF-1.0
aF-1.0
aF-1.0
aF-1.0
aF-1.0
aF-1.0
aF-1.0
aF-1.0
aF-1.0
aF-1.0
aF-1.0
aF-1.0
aF-1.0
aF-1.0
aF-1.0
aF-1.0
aaa(lp751
g96
a(lp752
F-1.0
aF-1.0
aF-1.0
aF-1.0
aF-1.0
aF-1.0
aF-1.0
aF-1.0
aF-1.0
aF-1.0
aF-1.0
aF-1.0
aF-1.0
aF-1.0
aF-1.0
aF-1.0
aF-1.0
aF-1.0
aF-1.0
aF-1.0
aF-1.0
aF-1.0
aF-1.0
aF-1.0
aF-1.0
aF-1.0
aF-1.0
aF-1.0
aF-1.0
aF-1.0
aF-1.0
aF-1.0
aF-1.0
aF-1.0
aF-1.0
aF-1.0
aF-1.0
aF-1.0
aF-1.0
aF-1.0
aF-1.0
aF-1.0
aF-1.0
aF-1.0
aaa(lp753
g98
a(lp754
F-1.0
aF-1.0
aF-1.0
aF-1.0
aF-1.0
aF-1.0
aF-1.0
aF-1.0
aF-1.0
aF-1.0
aF-1.0
aF-1.0
aF-1.0
aF-1.0
aF-1.0
aF-1.0
aF-1.0
aF-1.0
aF-1.0
aF-1.0
aF-1.0
aF-1.0
aF-1.0
aF-1.0
aF-1.0
aF-1.0
aF-1.0
aF-1.0
aF-1.0
aF-1.0
aF-1.0
aF-1.0
aF-1.0
aF-1.0
aF-1.0
aF-1.0
aF-1.0
aF-1.0
aF-1.0
aF-1.0
aF-1.0
aF-1.0
aF-1.0
aF-1.0
aF-1.0
aF-1.0
aF-1.0
aF-1.0
aF-1.0
aF-1.0
aF-1.0
aaa(lp755
g100
a(lp756
F-1.0
aF-1.0
aF-1.0
aF-1.0
aF-1.0
aF-1.0
aF-1.0
aF-1.0
aF-1.0
aF-1.0
aF-1.0
aF-1.0
aF-1.0
aF-1.0
aF-1.0
aF-1.0
aF-1.0
aF-1.0
aF-1.0
aF-1.0
aF-1.0
aF-1.0
aF-1.0
aF-1.0
aF-1.0
aF-1.0
aF-1.0
aF-1.0
aF-1.0
aF-1.0
aF-1.0
aF-1.0
aF-1.0
aF-1.0
aF-1.0
aF-1.0
aF-1.0
aF-1.0
aF-1.0
aF-1.0
aF-1.0
aF-1.0
aF-1.0
aF-1.0
aF-1.0
aF-1.0
aF-1.0
aF-1.0
aF-1.0
aF-1.0
aF-1.0
aaa(lp757
g103
a(lp758
F-1.0
aF-1.0
aF-1.0
aF-1.0
aF-1.0
aF-1.0
aF-1.0
aF-1.0
aF-1.0
aF-1.0
aF-1.0
aF-1.0
aF-1.0
aF-1.0
aF-1.0
aF-1.0
aF-1.0
aF-1.0
aF-1.0
aF-1.0
aF-1.0
aF-1.0
aF-1.0
aF-1.0
aF-1.0
aF-1.0
aF-1.0
aF-1.0
aF-1.0
aF-1.0
aF-1.0
aF-1.0
aF-1.0
aF-1.0
aF-1.0
aF-1.0
aF-1.0
aaa(lp759
g105
a(lp760
F-1.0
aF-1.0
aF-1.0
aF-1.0
aF-1.0
aF-1.0
aF-1.0
aF-1.0
aF-1.0
aF-1.0
aF-1.0
aF-1.0
aF-1.0
aF-1.0
aF-1.0
aF-1.0
aF-1.0
aF-1.0
aF-1.0
aF-1.0
aF-1.0
aF-1.0
aF-1.0
aF-1.0
aF-1.0
aF-1.0
aF-1.0
aF-1.0
aF-1.0
aF-1.0
aF-1.0
aF-1.0
aF-1.0
aF-1.0
aF-1.0
aF-1.0
aF-1.0
aF-1.0
aF-1.0
aF-1.0
aF-1.0
aaa(lp761
g107
a(lp762
F-1.0
aF-1.0
aF-1.0
aF-1.0
aF-1.0
aF-1.0
aF-1.0
aF-1.0
aF-1.0
aF-1.0
aF-1.0
aF-1.0
aF-1.0
aF-1.0
aF-1.0
aF-1.0
aF-1.0
aF-1.0
aF-1.0
aF-1.0
aF-1.0
aF-1.0
aF-1.0
aF-1.0
aF-1.0
aF-1.0
aF-1.0
aF-1.0
aF-1.0
aF-1.0
aF-1.0
aF-1.0
aF-1.0
aF-1.0
aF-1.0
aF-1.0
aF-1.0
aF-1.0
aF-1.0
aF-1.0
aF-1.0
aF-1.0
aF-1.0
aF-1.0
aF-1.0
aF-1.0
aF-1.0
aaa(lp763
g109
a(lp764
F-1.0
aF-1.0
aF-1.0
aF-1.0
aF-1.0
aF-1.0
aF-1.0
aF-1.0
aF-1.0
aF-1.0
aF-1.0
aF-1.0
aF-1.0
aF-1.0
aF-1.0
aF-1.0
aF-1.0
aF-1.0
aF-1.0
aF-1.0
aF-1.0
aF-1.0
aF-1.0
aF-1.0
aF-1.0
aF-1.0
aF-1.0
aF-1.0
aF-1.0
aF-1.0
aF-1.0
aF-1.0
aF-1.0
aF-1.0
aF-1.0
aF-1.0
aF-1.0
aF-1.0
aF-1.0
aF-1.0
aF-1.0
aF-1.0
aF-1.0
aF-1.0
aF-1.0
aF-1.0
aF-1.0
aaa(lp765
g112
a(lp766
F-1.0
aF-1.0
aF-1.0
aF-1.0
aF-1.0
aF-1.0
aF-1.0
aF-1.0
aF-1.0
aF-1.0
aF-1.0
aF-1.0
aF-1.0
aF-1.0
aF-1.0
aF-1.0
aF-1.0
aF-1.0
aF-1.0
aF-1.0
aF-1.0
aF-1.0
aF-1.0
aF-1.0
aF-1.0
aF-1.0
aF-1.0
aF-1.0
aF-1.0
aF-1.0
aF-1.0
aF-1.0
aF-1.0
aF-1.0
aF-1.0
aF-1.0
aF-1.0
aF-1.0
aF-1.0
aF-1.0
aF-1.0
aF-1.0
aF-1.0
aF-1.0
aF-1.0
aaa(lp767
g114
a(lp768
F-1.0
aF-1.0
aF-1.0
aF-1.0
aF-1.0
aF-1.0
aF-1.0
aF-1.0
aF-1.0
aF-1.0
aF-1.0
aF-1.0
aF-1.0
aF-1.0
aF-1.0
aF-1.0
aF-1.0
aF-1.0
aF-1.0
aF-1.0
aF-1.0
aF-1.0
aF-1.0
aF-1.0
aF-1.0
aF-1.0
aF-1.0
aF-1.0
aF-1.0
aF-1.0
aF-1.0
aF-1.0
aF-1.0
aF-1.0
aF-1.0
aF-1.0
aF-1.0
aF-1.0
aF-1.0
aF-1.0
aF-1.0
aF-1.0
aF-1.0
aF-1.0
aF-1.0
aF-1.0
aaa(lp769
g116
a(lp770
F-1.0
aF-1.0
aF-1.0
aF-1.0
aF-1.0
aF-1.0
aF-1.0
aF-1.0
aF-1.0
aF-1.0
aF-1.0
aF-1.0
aF-1.0
aF-1.0
aF-1.0
aF-1.0
aF-1.0
aF-1.0
aF-1.0
aF-1.0
aF-1.0
aF-1.0
aF-1.0
aF-1.0
aF-1.0
aF-1.0
aF-1.0
aF-1.0
aF-1.0
aF-1.0
aF-1.0
aF-1.0
aF-1.0
aF-1.0
aF-1.0
aF-1.0
aF-1.0
aF-1.0
aF-1.0
aF-1.0
aF-1.0
aF-1.0
aF-1.0
aF-1.0
aF-1.0
aF-1.0
aF-1.0
aF-1.0
aF-1.0
aaa(lp771
g118
a(lp772
F-1.0
aF-1.0
aF-1.0
aF-1.0
aF-1.0
aF-1.0
aF-1.0
aF-1.0
aF-1.0
aF-1.0
aF-1.0
aF-1.0
aF-1.0
aF-1.0
aF-1.0
aF-1.0
aF-1.0
aF-1.0
aF-1.0
aF-1.0
aF-1.0
aF-1.0
aF-1.0
aF-1.0
aF-1.0
aF-1.0
aF-1.0
aF-1.0
aF-1.0
aF-1.0
aF-1.0
aF-1.0
aF-1.0
aF-1.0
aF-1.0
aF-1.0
aF-1.0
aF-1.0
aF-1.0
aF-1.0
aF-1.0
aF-1.0
aF-1.0
aF-1.0
aF-1.0
aF-1.0
aF-1.0
aF-1.0
aF-1.0
aaa(lp773
g121
a(lp774
F-1.0
aF-1.0
aF-1.0
aF-1.0
aF-1.0
aF-1.0
aF-1.0
aF-1.0
aF-1.0
aF-1.0
aF-1.0
aF-1.0
aF-1.0
aF-1.0
aF-1.0
aF-1.0
aF-1.0
aF-1.0
aF-1.0
aF-1.0
aF-1.0
aF-1.0
aF-1.0
aF-1.0
aF-1.0
aF-1.0
aF-1.0
aF-1.0
aF-1.0
aF-1.0
aF-1.0
aF-1.0
aF-1.0
aF-1.0
aF-1.0
aF-1.0
aF-1.0
aF-1.0
aF-1.0
aF-1.0
aaa(lp775
g123
a(lp776
F-1.0
aF-1.0
aF-1.0
aF-1.0
aF-1.0
aF-1.0
aF-1.0
aF-1.0
aF-1.0
aF-1.0
aF-1.0
aF-1.0
aF-1.0
aF-1.0
aF-1.0
aF-1.0
aF-1.0
aF-1.0
aF-1.0
aF-1.0
aF-1.0
aF-1.0
aF-1.0
aF-1.0
aF-1.0
aF-1.0
aF-1.0
aF-1.0
aF-1.0
aF-1.0
aF-1.0
aF-1.0
aF-1.0
aF-1.0
aF-1.0
aF-1.0
aF-1.0
aF-1.0
aF-1.0
aF-1.0
aF-1.0
aF-1.0
aF-1.0
aF-1.0
aF-1.0
aaa(lp777
g125
a(lp778
F-1.0
aF-1.0
aF-1.0
aF-1.0
aF-1.0
aF-1.0
aF-1.0
aF-1.0
aF-1.0
aF-1.0
aF-1.0
aF-1.0
aF-1.0
aF-1.0
aF-1.0
aF-1.0
aF-1.0
aF-1.0
aF-1.0
aF-1.0
aF-1.0
aF-1.0
aF-1.0
aF-1.0
aF-1.0
aF-1.0
aF-1.0
aF-1.0
aF-1.0
aF-1.0
aF-1.0
aF-1.0
aF-1.0
aF-1.0
aF-1.0
aF-1.0
aF-1.0
aF-1.0
aF-1.0
aF-1.0
aF-1.0
aF-1.0
aF-1.0
aF-1.0
aF-1.0
aF-1.0
aF-1.0
aF-1.0
aF-1.0
aF-1.0
aaa(lp779
g127
a(lp780
F-1.0
aF-1.0
aF-1.0
aF-1.0
aF-1.0
aF-1.0
aF-1.0
aF-1.0
aF-1.0
aF-1.0
aF-1.0
aF-1.0
aF-1.0
aF-1.0
aF-1.0
aF-1.0
aF-1.0
aF-1.0
aF-1.0
aF-1.0
aF-1.0
aF-1.0
aF-1.0
aF-1.0
aF-1.0
aF-1.0
aF-1.0
aF-1.0
aF-1.0
aF-1.0
aF-1.0
aF-1.0
aF-1.0
aF-1.0
aF-1.0
aF-1.0
aF-1.0
aF-1.0
aF-1.0
aF-1.0
aF-1.0
aF-1.0
aF-1.0
aF-1.0
aF-1.0
aF-1.0
aF-1.0
aF-1.0
aF-1.0
aF-1.0
aaa(lp781
g130
a(lp782
F-1.0
aF-1.0
aF-1.0
aF-1.0
aF-1.0
aF-1.0
aF-1.0
aF-1.0
aF-1.0
aF-1.0
aF-1.0
aF-1.0
aF-1.0
aF-1.0
aF-1.0
aF-1.0
aF-1.0
aF-1.0
aF-1.0
aF-1.0
aF-1.0
aF-1.0
aF-1.0
aF-1.0
aF-1.0
aF-1.0
aF-1.0
aF-1.0
aF-1.0
aF-1.0
aF-1.0
aF-1.0
aF-1.0
aF-1.0
aF-1.0
aF-1.0
aF-1.0
aF-1.0
aF-1.0
aF-1.0
aF-1.0
aF-1.0
aF-1.0
aF-1.0
aaa(lp783
g132
a(lp784
F-1.0
aF-1.0
aF-1.0
aF-1.0
aF-1.0
aF-1.0
aF-1.0
aF-1.0
aF-1.0
aF-1.0
aF-1.0
aF-1.0
aF-1.0
aF-1.0
aF-1.0
aF-1.0
aF-1.0
aF-1.0
aF-1.0
aF-1.0
aF-1.0
aF-1.0
aF-1.0
aF-1.0
aF-1.0
aF-1.0
aF-1.0
aF-1.0
aF-1.0
aF-1.0
aF-1.0
aF-1.0
aF-1.0
aF-1.0
aF-1.0
aF-1.0
aF-1.0
aF-1.0
aF-1.0
aF-1.0
aF-1.0
aF-1.0
aF-1.0
aF-1.0
aF-1.0
aF-1.0
aF-1.0
aF-1.0
aF-1.0
aaa(lp785
g134
a(lp786
F-1.0
aF-1.0
aF-1.0
aF-1.0
aF-1.0
aF-1.0
aF-1.0
aF-1.0
aF-1.0
aF-1.0
aF-1.0
aF-1.0
aF-1.0
aF-1.0
aF-1.0
aF-1.0
aF-1.0
aF-1.0
aF-1.0
aF-1.0
aF-1.0
aF-1.0
aF-1.0
aF-1.0
aF-1.0
aF-1.0
aF-1.0
aF-1.0
aF-1.0
aF-1.0
aF-1.0
aF-1.0
aF-1.0
aF-1.0
aF-1.0
aF-1.0
aF-1.0
aF-1.0
aF-1.0
aF-1.0
aF-1.0
aF-1.0
aF-1.0
aF-1.0
aF-1.0
aF-1.0
aF-1.0
aF-1.0
aF-1.0
aF-1.0
aF-1.0
aF-1.0
aF-1.0
aaa(lp787
g136
a(lp788
F-1.0
aF-1.0
aF-1.0
aF-1.0
aF-1.0
aF-1.0
aF-1.0
aF-1.0
aF-1.0
aF-1.0
aF-1.0
aF-1.0
aF-1.0
aF-1.0
aF-1.0
aF-1.0
aF-1.0
aF-1.0
aF-1.0
aF-1.0
aF-1.0
aF-1.0
aF-1.0
aF-1.0
aF-1.0
aF-1.0
aF-1.0
aF-1.0
aF-1.0
aF-1.0
aF-1.0
aF-1.0
aF-1.0
aF-1.0
aF-1.0
aF-1.0
aF-1.0
aF-1.0
aF-1.0
aF-1.0
aF-1.0
aF-1.0
aF-1.0
aF-1.0
aF-1.0
aF-1.0
aF-1.0
aF-1.0
aF-1.0
aF-1.0
aF-1.0
aF-1.0
aF-1.0
aaa(lp789
g139
a(lp790
F-1.0
aF-1.0
aF-1.0
aF-1.0
aF-1.0
aF-1.0
aF-1.0
aF-1.0
aF-1.0
aF-1.0
aF-1.0
aF-1.0
aF-1.0
aF-1.0
aF-1.0
aF-1.0
aF-1.0
aF-1.0
aF-1.0
aF-1.0
aF-1.0
aF-1.0
aF-1.0
aF-1.0
aF-1.0
aF-1.0
aF-1.0
aF-1.0
aF-1.0
aF-1.0
aF-1.0
aF-1.0
aF-1.0
aF-1.0
aF-1.0
aF-1.0
aF-1.0
aF-1.0
aF-1.0
aF-1.0
aF-1.0
aF-1.0
aaa(lp791
g141
a(lp792
F-1.0
aF-1.0
aF-1.0
aF-1.0
aF-1.0
aF-1.0
aF-1.0
aF-1.0
aF-1.0
aF-1.0
aF-1.0
aF-1.0
aF-1.0
aF-1.0
aF-1.0
aF-1.0
aF-1.0
aF-1.0
aF-1.0
aF-1.0
aF-1.0
aF-1.0
aF-1.0
aF-1.0
aF-1.0
aF-1.0
aF-1.0
aF-1.0
aF-1.0
aF-1.0
aF-1.0
aF-1.0
aF-1.0
aF-1.0
aF-1.0
aF-1.0
aF-1.0
aF-1.0
aF-1.0
aF-1.0
aF-1.0
aF-1.0
aF-1.0
aF-1.0
aF-1.0
aF-1.0
aF-1.0
aF-1.0
aF-1.0
aaa(lp793
g143
a(lp794
F-1.0
aF-1.0
aF-1.0
aF-1.0
aF-1.0
aF-1.0
aF-1.0
aF-1.0
aF-1.0
aF-1.0
aF-1.0
aF-1.0
aF-1.0
aF-1.0
aF-1.0
aF-1.0
aF-1.0
aF-1.0
aF-1.0
aF-1.0
aF-1.0
aF-1.0
aF-1.0
aF-1.0
aF-1.0
aF-1.0
aF-1.0
aF-1.0
aF-1.0
aF-1.0
aF-1.0
aF-1.0
aF-1.0
aF-1.0
aF-1.0
aF-1.0
aF-1.0
aF-1.0
aF-1.0
aF-1.0
aF-1.0
aF-1.0
aF-1.0
aF-1.0
aF-1.0
aF-1.0
aF-1.0
aF-1.0
aF-1.0
aF-1.0
aF-1.0
aF-1.0
aaa(lp795
g145
a(lp796
F-1.0
aF-1.0
aF-1.0
aF-1.0
aF-1.0
aF-1.0
aF-1.0
aF-1.0
aF-1.0
aF-1.0
aF-1.0
aF-1.0
aF-1.0
aF-1.0
aF-1.0
aF-1.0
aF-1.0
aF-1.0
aF-1.0
aF-1.0
aF-1.0
aF-1.0
aF-1.0
aF-1.0
aF-1.0
aF-1.0
aF-1.0
aF-1.0
aF-1.0
aF-1.0
aF-1.0
aF-1.0
aF-1.0
aF-1.0
aF-1.0
aF-1.0
aF-1.0
aF-1.0
aF-1.0
aF-1.0
aF-1.0
aF-1.0
aF-1.0
aF-1.0
aF-1.0
aF-1.0
aF-1.0
aF-1.0
aF-1.0
aF-1.0
aF-1.0
aF-1.0
aaa(lp797
g148
a(lp798
F-1.0
aF-1.0
aF-1.0
aF-1.0
aF-1.0
aF-1.0
aF-1.0
aF-1.0
aF-1.0
aF-1.0
aF-1.0
aF-1.0
aF-1.0
aF-1.0
aF-1.0
aF-1.0
aF-1.0
aF-1.0
aF-1.0
aF-1.0
aF-1.0
aF-1.0
aF-1.0
aF-1.0
aF-1.0
aF-1.0
aF-1.0
aF-1.0
aF-1.0
aF-1.0
aF-1.0
aF-1.0
aF-1.0
aF-1.0
aF-1.0
aF-1.0
aF-1.0
aF-1.0
aF-1.0
aF-1.0
aF-1.0
aF-1.0
aaa(lp799
g151
a(lp800
F-1.0
aF-1.0
aF-1.0
aF-1.0
aF-1.0
aF-1.0
aF-1.0
aF-1.0
aF-1.0
aF-1.0
aF-1.0
aF-1.0
aF-1.0
aF-1.0
aF-1.0
aF-1.0
aF-1.0
aF-1.0
aF-1.0
aF-1.0
aF-1.0
aF-1.0
aF-1.0
aF-1.0
aF-1.0
aF-1.0
aF-1.0
aF-1.0
aF-1.0
aF-1.0
aF-1.0
aF-1.0
aF-1.0
aF-1.0
aF-1.0
aF-1.0
aF-1.0
aF-1.0
aF-1.0
aF-1.0
aF-1.0
aF-1.0
aF-1.0
aF-1.0
aF-1.0
aF-1.0
aF-1.0
aF-1.0
aF-1.0
aF-1.0
aF-1.0
aF-1.0
aF-1.0
aF-1.0
aF-1.0
aF-1.0
aF-1.0
aF-1.0
aF-1.0
aF-1.0
aaatp801
Rp802
aa(lp803
g24
ag0
((lp804
(lp805
g76
a(lp806
aa(lp807
g78
a(lp808
aa(lp809
g80
a(lp810
aa(lp811
g82
a(lp812
aa(lp813
g85
a(lp814
aa(lp815
g87
a(lp816
aa(lp817
g89
a(lp818
aa(lp819
g91
a(lp820
aa(lp821
g94
a(lp822
aa(lp823
g96
a(lp824
aa(lp825
g98
a(lp826
aa(lp827
g100
a(lp828
aa(lp829
g103
a(lp830
aa(lp831
g105
a(lp832
aa(lp833
g107
a(lp834
aa(lp835
g109
a(lp836
aa(lp837
g112
a(lp838
aa(lp839
g114
a(lp840
aa(lp841
g116
a(lp842
aa(lp843
g118
a(lp844
aa(lp845
g121
a(lp846
aa(lp847
g123
a(lp848
aa(lp849
g125
a(lp850
aa(lp851
g127
a(lp852
aa(lp853
g130
a(lp854
aa(lp855
g132
a(lp856
aa(lp857
g134
a(lp858
aa(lp859
g136
a(lp860
aa(lp861
g139
a(lp862
aa(lp863
g141
a(lp864
aa(lp865
g143
a(lp866
aa(lp867
g145
a(lp868
aa(lp869
g148
a(lp870
aa(lp871
g151
a(lp872
aatp873
Rp874
aatp875
Rp876
aa(lp877
g9
ag0
((lp878
tp879
Rp880
aa(lp881
g14
ag0
((lp882
tp883
Rp884
aa(lp885
g19
ag0
((lp886
tp887
Rp888
aa(lp889
g24
ag0
((lp890
tp891
Rp892
aatp893
Rp894
aa(lp895
S'Number of Actions'
p896
ag0
((lp897
(lp898
g6
ag0
((lp899
(lp900
g9
ag0
((lp901
(lp902
g76
aF77.15789473684211
aa(lp903
g78
aF68.87878787878788
aa(lp904
g80
aF65.8974358974359
aa(lp905
g82
aF65.8974358974359
aa(lp906
g85
aF78.65517241379311
aa(lp907
g87
aF74.0
aa(lp908
g89
aF68.78378378378379
aa(lp909
g91
aF69.05405405405405
aa(lp910
g94
aF75.25
aa(lp911
g96
aF65.21428571428571
aa(lp912
g98
aF62.8235294117647
aa(lp913
g100
aF62.5
aa(lp914
g103
aF74.77142857142857
aa(lp915
g105
aF70.2258064516129
aa(lp916
g107
aF68.08333333333333
aa(lp917
g109
aF68.25
aa(lp918
g112
aF74.43478260869566
aa(lp919
g114
aF71.48387096774194
aa(lp920
g116
aF69.08333333333333
aa(lp921
g118
aF68.37142857142857
aa(lp922
g121
aF69.67857142857143
aa(lp923
g123
aF68.6
aa(lp924
g125
aF64.5
aa(lp925
g127
aF63.628571428571426
aa(lp926
g130
aF75.17391304347827
aa(lp927
g132
aF75.65
aa(lp928
g134
aF72.25925925925925
aa(lp929
g136
aF72.55555555555556
aa(lp930
g139
aF76.86111111111111
aa(lp931
g141
aF70.92857142857143
aa(lp932
g143
aF69.0
aa(lp933
g145
aF69.1219512195122
aa(lp934
g148
aF75.58333333333333
aa(lp935
g151
aF73.925
aatp936
Rp937
aa(lp938
g14
ag0
((lp939
(lp940
g76
aF-1.0
aa(lp941
g78
aF-1.0
aa(lp942
g80
aF-1.0
aa(lp943
g82
aF-1.0
aa(lp944
g85
aF-1.0
aa(lp945
g87
aF-1.0
aa(lp946
g89
aF-1.0
aa(lp947
g91
aF-1.0
aa(lp948
g94
aF-1.0
aa(lp949
g96
aF-1.0
aa(lp950
g98
aF-1.0
aa(lp951
g100
aF-1.0
aa(lp952
g103
aF-1.0
aa(lp953
g105
aF-1.0
aa(lp954
g107
aF-1.0
aa(lp955
g109
aF-1.0
aa(lp956
g112
aF-1.0
aa(lp957
g114
aF-1.0
aa(lp958
g116
aF-1.0
aa(lp959
g118
aF-1.0
aa(lp960
g121
aF-1.0
aa(lp961
g123
aF-1.0
aa(lp962
g125
aF-1.0
aa(lp963
g127
aF-1.0
aa(lp964
g130
aF-1.0
aa(lp965
g132
aF-1.0
aa(lp966
g134
aF-1.0
aa(lp967
g136
aF-1.0
aa(lp968
g139
aF-1.0
aa(lp969
g141
aF-1.0
aa(lp970
g143
aF-1.0
aa(lp971
g145
aF-1.0
aa(lp972
g148
aF-1.0
aa(lp973
g151
aFnan
aatp974
Rp975
aa(lp976
g19
ag0
((lp977
(lp978
g76
aF-1.0
aa(lp979
g78
aF-1.0
aa(lp980
g80
aF-1.0
aa(lp981
g82
aF-1.0
aa(lp982
g85
aF-1.0
aa(lp983
g87
aF-1.0
aa(lp984
g89
aF-1.0
aa(lp985
g91
aF-1.0
aa(lp986
g94
aF-1.0
aa(lp987
g96
aF-1.0
aa(lp988
g98
aF-1.0
aa(lp989
g100
aF-1.0
aa(lp990
g103
aF-1.0
aa(lp991
g105
aF-1.0
aa(lp992
g107
aF-1.0
aa(lp993
g109
aF-1.0
aa(lp994
g112
aF-1.0
aa(lp995
g114
aF-1.0
aa(lp996
g116
aF-1.0
aa(lp997
g118
aF-1.0
aa(lp998
g121
aF-1.0
aa(lp999
g123
aF-1.0
aa(lp1000
g125
aF-1.0
aa(lp1001
g127
aF-1.0
aa(lp1002
g130
aF-1.0
aa(lp1003
g132
aF-1.0
aa(lp1004
g134
aF-1.0
aa(lp1005
g136
aF-1.0
aa(lp1006
g139
aF-1.0
aa(lp1007
g141
aF-1.0
aa(lp1008
g143
aF-1.0
aa(lp1009
g145
aF-1.0
aa(lp1010
g148
aF-1.0
aa(lp1011
g151
aF-1.0
aatp1012
Rp1013
aa(lp1014
g24
ag0
((lp1015
(lp1016
g76
aFnan
aa(lp1017
g78
aFnan
aa(lp1018
g80
aFnan
aa(lp1019
g82
aFnan
aa(lp1020
g85
aFnan
aa(lp1021
g87
aFnan
aa(lp1022
g89
aFnan
aa(lp1023
g91
aFnan
aa(lp1024
g94
aFnan
aa(lp1025
g96
aFnan
aa(lp1026
g98
aFnan
aa(lp1027
g100
aFnan
aa(lp1028
g103
aFnan
aa(lp1029
g105
aFnan
aa(lp1030
g107
aFnan
aa(lp1031
g109
aFnan
aa(lp1032
g112
aFnan
aa(lp1033
g114
aFnan
aa(lp1034
g116
aFnan
aa(lp1035
g118
aFnan
aa(lp1036
g121
aFnan
aa(lp1037
g123
aFnan
aa(lp1038
g125
aFnan
aa(lp1039
g127
aFnan
aa(lp1040
g130
aFnan
aa(lp1041
g132
aFnan
aa(lp1042
g134
aFnan
aa(lp1043
g136
aFnan
aa(lp1044
g139
aFnan
aa(lp1045
g141
aFnan
aa(lp1046
g143
aFnan
aa(lp1047
g145
aFnan
aa(lp1048
g148
aFnan
aa(lp1049
g151
aFnan
aatp1050
Rp1051
aatp1052
Rp1053
aa(lp1054
g31
ag0
((lp1055
(lp1056
g9
ag0
((lp1057
(lp1058
g76
aF27.80193101964417
aa(lp1059
g78
aF19.65285853215375
aa(lp1060
g80
aF18.27105112033337
aa(lp1061
g82
aF18.41594685362443
aa(lp1062
g85
aF29.608487998821467
aa(lp1063
g87
aF20.737996916988685
aa(lp1064
g89
aF19.482378270197483
aa(lp1065
g91
aF19.059768486914386
aa(lp1066
g94
aF29.7419004967956
aa(lp1067
g96
aF16.61181449909615
aa(lp1068
g98
aF16.85134755556667
aa(lp1069
g100
aF17.343674071632872
aa(lp1070
g103
aF23.83532439627433
aa(lp1071
g105
aF18.973155909370753
aa(lp1072
g107
aF17.517949977910412
aa(lp1073
g109
aF17.69321904007295
aa(lp1074
g112
aF20.29291431858672
aa(lp1075
g114
aF17.40664809345735
aa(lp1076
g116
aF17.48529994840564
aa(lp1077
g118
aF17.645338851755646
aa(lp1078
g121
aF19.059465562109224
aa(lp1079
g123
aF17.907039648292436
aa(lp1080
g125
aF16.76305461424021
aa(lp1081
g127
aF16.073518071451478
aa(lp1082
g130
aF24.507238585426226
aa(lp1083
g132
aF31.372591121617774
aa(lp1084
g134
aF27.22639075008572
aa(lp1085
g136
aF27.351463655580925
aa(lp1086
g139
aF22.17225135521267
aa(lp1087
g141
aF19.938662556707875
aa(lp1088
g143
aF15.675053973532938
aa(lp1089
g145
aF16.01748282651057
aa(lp1090
g148
aF15.860579151294973
aa(lp1091
g151
aF21.751967196625618
aatp1092
Rp1093
aa(lp1094
g14
ag0
((lp1095
(lp1096
g76
aF0.0
aa(lp1097
g78
aF0.0
aa(lp1098
g80
aF0.0
aa(lp1099
g82
aF0.0
aa(lp1100
g85
aF0.0
aa(lp1101
g87
aF0.0
aa(lp1102
g89
aF0.0
aa(lp1103
g91
aF0.0
aa(lp1104
g94
aF0.0
aa(lp1105
g96
aF0.0
aa(lp1106
g98
aF0.0
aa(lp1107
g100
aF0.0
aa(lp1108
g103
aF0.0
aa(lp1109
g105
aF0.0
aa(lp1110
g107
aF0.0
aa(lp1111
g109
aF0.0
aa(lp1112
g112
aF0.0
aa(lp1113
g114
aF0.0
aa(lp1114
g116
aF0.0
aa(lp1115
g118
aF0.0
aa(lp1116
g121
aF0.0
aa(lp1117
g123
aF0.0
aa(lp1118
g125
aF0.0
aa(lp1119
g127
aF0.0
aa(lp1120
g130
aF0.0
aa(lp1121
g132
aF0.0
aa(lp1122
g134
aF0.0
aa(lp1123
g136
aF0.0
aa(lp1124
g139
aF0.0
aa(lp1125
g141
aF0.0
aa(lp1126
g143
aF0.0
aa(lp1127
g145
aF0.0
aa(lp1128
g148
aF0.0
aa(lp1129
g151
aFnan
aatp1130
Rp1131
aa(lp1132
g19
ag0
((lp1133
(lp1134
g76
aF0.0
aa(lp1135
g78
aF0.0
aa(lp1136
g80
aF0.0
aa(lp1137
g82
aF0.0
aa(lp1138
g85
aF0.0
aa(lp1139
g87
aF0.0
aa(lp1140
g89
aF0.0
aa(lp1141
g91
aF0.0
aa(lp1142
g94
aF0.0
aa(lp1143
g96
aF0.0
aa(lp1144
g98
aF0.0
aa(lp1145
g100
aF0.0
aa(lp1146
g103
aF0.0
aa(lp1147
g105
aF0.0
aa(lp1148
g107
aF0.0
aa(lp1149
g109
aF0.0
aa(lp1150
g112
aF0.0
aa(lp1151
g114
aF0.0
aa(lp1152
g116
aF0.0
aa(lp1153
g118
aF0.0
aa(lp1154
g121
aF0.0
aa(lp1155
g123
aF0.0
aa(lp1156
g125
aF0.0
aa(lp1157
g127
aF0.0
aa(lp1158
g130
aF0.0
aa(lp1159
g132
aF0.0
aa(lp1160
g134
aF0.0
aa(lp1161
g136
aF0.0
aa(lp1162
g139
aF0.0
aa(lp1163
g141
aF0.0
aa(lp1164
g143
aF0.0
aa(lp1165
g145
aF0.0
aa(lp1166
g148
aF0.0
aa(lp1167
g151
aF0.0
aatp1168
Rp1169
aa(lp1170
g24
ag0
((lp1171
(lp1172
g76
aFnan
aa(lp1173
g78
aFnan
aa(lp1174
g80
aFnan
aa(lp1175
g82
aFnan
aa(lp1176
g85
aFnan
aa(lp1177
g87
aFnan
aa(lp1178
g89
aFnan
aa(lp1179
g91
aFnan
aa(lp1180
g94
aFnan
aa(lp1181
g96
aFnan
aa(lp1182
g98
aFnan
aa(lp1183
g100
aFnan
aa(lp1184
g103
aFnan
aa(lp1185
g105
aFnan
aa(lp1186
g107
aFnan
aa(lp1187
g109
aFnan
aa(lp1188
g112
aFnan
aa(lp1189
g114
aFnan
aa(lp1190
g116
aFnan
aa(lp1191
g118
aFnan
aa(lp1192
g121
aFnan
aa(lp1193
g123
aFnan
aa(lp1194
g125
aFnan
aa(lp1195
g127
aFnan
aa(lp1196
g130
aFnan
aa(lp1197
g132
aFnan
aa(lp1198
g134
aFnan
aa(lp1199
g136
aFnan
aa(lp1200
g139
aFnan
aa(lp1201
g141
aFnan
aa(lp1202
g143
aFnan
aa(lp1203
g145
aFnan
aa(lp1204
g148
aFnan
aa(lp1205
g151
aFnan
aatp1206
Rp1207
aatp1208
Rp1209
aa(lp1210
g52
ag0
((lp1211
(lp1212
g9
ag0
((lp1213
(lp1214
g76
a(lp1215
F95.0
aF94.0
aF82.0
aF45.0
aF53.0
aF50.0
aF54.0
aF62.0
aF93.0
aF98.0
aF100.0
aF60.0
aF57.0
aF47.0
aF79.0
aF59.0
aF66.0
aF70.0
aF66.0
aF108.0
aF94.0
aF75.0
aF94.0
aF84.0
aF72.0
aF77.0
aF108.0
aF108.0
aF134.0
aF154.0
aF138.0
aF64.0
aF48.0
aF46.0
aF47.0
aF51.0
aF49.0
aF51.0
aaa(lp1216
g78
a(lp1217
F95.0
aF94.0
aF82.0
aF45.0
aF53.0
aF50.0
aF54.0
aF62.0
aF79.0
aF99.0
aF60.0
aF57.0
aF47.0
aF79.0
aF59.0
aF66.0
aF67.0
aF86.0
aF57.0
aF67.0
aF98.0
aF96.0
aF82.0
aF85.0
aF90.0
aF107.0
aF78.0
aF48.0
aF40.0
aF47.0
aF45.0
aF50.0
aF49.0
aaa(lp1218
g80
a(lp1219
F68.0
aF45.0
aF53.0
aF50.0
aF54.0
aF62.0
aF79.0
aF99.0
aF60.0
aF57.0
aF47.0
aF79.0
aF59.0
aF66.0
aF99.0
aF55.0
aF86.0
aF74.0
aF75.0
aF95.0
aF74.0
aF76.0
aF57.0
aF67.0
aF98.0
aF96.0
aF82.0
aF85.0
aF90.0
aF50.0
aF53.0
aF34.0
aF63.0
aF51.0
aF46.0
aF47.0
aF37.0
aF53.0
aF49.0
aaa(lp1220
g82
a(lp1221
F68.0
aF45.0
aF53.0
aF50.0
aF54.0
aF62.0
aF79.0
aF99.0
aF60.0
aF57.0
aF47.0
aF79.0
aF59.0
aF66.0
aF99.0
aF55.0
aF86.0
aF74.0
aF75.0
aF95.0
aF74.0
aF76.0
aF57.0
aF67.0
aF98.0
aF96.0
aF82.0
aF85.0
aF90.0
aF50.0
aF53.0
aF34.0
aF63.0
aF47.0
aF50.0
aF47.0
aF32.0
aF58.0
aF49.0
aaa(lp1222
g85
a(lp1223
F73.0
aF108.0
aF82.0
aF88.0
aF99.0
aF101.0
aF45.0
aF53.0
aF50.0
aF54.0
aF62.0
aF93.0
aF98.0
aF89.0
aF98.0
aF105.0
aF79.0
aF75.0
aF99.0
aF103.0
aF154.0
aF138.0
aF64.0
aF46.0
aF46.0
aF47.0
aF32.0
aF49.0
aF51.0
aaa(lp1224
g87
a(lp1225
F73.0
aF108.0
aF82.0
aF88.0
aF99.0
aF101.0
aF45.0
aF53.0
aF50.0
aF54.0
aF62.0
aF83.0
aF78.0
aF98.0
aF105.0
aF79.0
aF75.0
aF70.0
aF68.0
aF85.0
aF86.0
aF72.0
aF100.0
aF84.0
aF107.0
aF78.0
aF48.0
aF41.0
aF49.0
aF53.0
aF49.0
aF45.0
aaa(lp1226
g89
a(lp1227
F84.0
aF75.0
aF84.0
aF85.0
aF45.0
aF53.0
aF50.0
aF54.0
aF62.0
aF83.0
aF78.0
aF98.0
aF105.0
aF79.0
aF75.0
aF99.0
aF55.0
aF86.0
aF74.0
aF75.0
aF95.0
aF74.0
aF86.0
aF57.0
aF72.0
aF100.0
aF84.0
aF50.0
aF53.0
aF34.0
aF63.0
aF51.0
aF46.0
aF42.0
aF37.0
aF51.0
aF51.0
aaa(lp1228
g91
a(lp1229
F84.0
aF75.0
aF84.0
aF85.0
aF45.0
aF53.0
aF50.0
aF54.0
aF62.0
aF83.0
aF78.0
aF98.0
aF105.0
aF79.0
aF75.0
aF99.0
aF55.0
aF86.0
aF74.0
aF75.0
aF95.0
aF74.0
aF86.0
aF57.0
aF72.0
aF100.0
aF84.0
aF50.0
aF53.0
aF34.0
aF63.0
aF51.0
aF46.0
aF47.0
aF46.0
aF49.0
aF49.0
aaa(lp1230
g94
a(lp1231
F95.0
aF94.0
aF82.0
aF45.0
aF53.0
aF50.0
aF54.0
aF62.0
aF93.0
aF98.0
aF100.0
aF60.0
aF57.0
aF47.0
aF79.0
aF59.0
aF66.0
aF70.0
aF66.0
aF108.0
aF94.0
aF103.0
aF134.0
aF154.0
aF138.0
aF64.0
aF44.0
aF46.0
aF47.0
aF46.0
aF49.0
aF51.0
aaa(lp1232
g96
a(lp1233
F95.0
aF94.0
aF82.0
aF45.0
aF53.0
aF50.0
aF54.0
aF62.0
aF79.0
aF99.0
aF60.0
aF57.0
aF47.0
aF79.0
aF59.0
aF66.0
aF67.0
aF86.0
aF57.0
aF72.0
aF85.0
aF78.0
aF46.0
aF52.0
aF49.0
aF55.0
aF49.0
aF49.0
aaa(lp1234
g98
a(lp1235
F68.0
aF45.0
aF53.0
aF50.0
aF54.0
aF62.0
aF79.0
aF99.0
aF60.0
aF57.0
aF47.0
aF79.0
aF59.0
aF66.0
aF99.0
aF55.0
aF86.0
aF74.0
aF75.0
aF95.0
aF74.0
aF86.0
aF57.0
aF72.0
aF50.0
aF53.0
aF34.0
aF63.0
aF44.0
aF46.0
aF47.0
aF46.0
aF51.0
aF51.0
aaa(lp1236
g100
a(lp1237
F68.0
aF45.0
aF53.0
aF50.0
aF54.0
aF62.0
aF79.0
aF99.0
aF60.0
aF57.0
aF47.0
aF79.0
aF59.0
aF66.0
aF99.0
aF55.0
aF86.0
aF74.0
aF75.0
aF95.0
aF74.0
aF86.0
aF57.0
aF72.0
aF50.0
aF53.0
aF34.0
aF63.0
aF48.0
aF45.0
aF49.0
aF32.0
aF51.0
aF49.0
aaa(lp1238
g103
a(lp1239
F95.0
aF94.0
aF82.0
aF45.0
aF53.0
aF50.0
aF78.0
aF98.0
aF100.0
aF110.0
aF60.0
aF57.0
aF79.0
aF59.0
aF66.0
aF70.0
aF66.0
aF108.0
aF94.0
aF75.0
aF94.0
aF84.0
aF72.0
aF77.0
aF108.0
aF108.0
aF134.0
aF69.0
aF54.0
aF47.0
aF46.0
aF46.0
aF37.0
aF51.0
aF51.0
aaa(lp1240
g105
a(lp1241
F95.0
aF94.0
aF82.0
aF45.0
aF53.0
aF50.0
aF79.0
aF99.0
aF60.0
aF57.0
aF79.0
aF59.0
aF66.0
aF67.0
aF86.0
aF57.0
aF67.0
aF98.0
aF96.0
aF82.0
aF85.0
aF90.0
aF107.0
aF67.0
aF59.0
aF44.0
aF54.0
aF47.0
aF54.0
aF51.0
aF48.0
aaa(lp1242
g107
a(lp1243
F68.0
aF45.0
aF53.0
aF50.0
aF79.0
aF99.0
aF60.0
aF57.0
aF79.0
aF59.0
aF66.0
aF99.0
aF55.0
aF86.0
aF62.0
aF75.0
aF95.0
aF74.0
aF86.0
aF57.0
aF67.0
aF98.0
aF96.0
aF82.0
aF85.0
aF90.0
aF50.0
aF69.0
aF53.0
aF63.0
aF47.0
aF46.0
aF47.0
aF54.0
aF51.0
aF49.0
aaa(lp1244
g109
a(lp1245
F68.0
aF45.0
aF53.0
aF50.0
aF79.0
aF99.0
aF60.0
aF57.0
aF79.0
aF59.0
aF66.0
aF99.0
aF55.0
aF86.0
aF74.0
aF75.0
aF95.0
aF74.0
aF86.0
aF57.0
aF67.0
aF98.0
aF96.0
aF82.0
aF85.0
aF90.0
aF50.0
aF69.0
aF53.0
aF63.0
aF48.0
aF46.0
aF46.0
aF46.0
aF51.0
aF51.0
aaa(lp1246
g112
a(lp1247
F108.0
aF84.0
aF82.0
aF81.0
aF53.0
aF50.0
aF78.0
aF98.0
aF105.0
aF59.0
aF98.0
aF79.0
aF75.0
aF99.0
aF66.0
aF103.0
aF69.0
aF62.0
aF47.0
aF50.0
aF47.0
aF68.0
aF51.0
aaa(lp1248
g114
a(lp1249
F108.0
aF84.0
aF82.0
aF81.0
aF53.0
aF50.0
aF83.0
aF105.0
aF59.0
aF98.0
aF79.0
aF75.0
aF70.0
aF68.0
aF77.0
aF80.0
aF57.0
aF100.0
aF64.0
aF72.0
aF70.0
aF84.0
aF85.0
aF67.0
aF51.0
aF48.0
aF52.0
aF49.0
aF50.0
aF66.0
aF49.0
aaa(lp1250
g116
a(lp1251
F84.0
aF75.0
aF85.0
aF53.0
aF50.0
aF83.0
aF105.0
aF59.0
aF98.0
aF79.0
aF75.0
aF99.0
aF55.0
aF86.0
aF74.0
aF75.0
aF57.0
aF74.0
aF86.0
aF57.0
aF100.0
aF64.0
aF72.0
aF70.0
aF84.0
aF50.0
aF69.0
aF53.0
aF34.0
aF63.0
aF57.0
aF51.0
aF46.0
aF46.0
aF68.0
aF51.0
aaa(lp1252
g118
a(lp1253
F84.0
aF75.0
aF85.0
aF53.0
aF50.0
aF83.0
aF105.0
aF59.0
aF98.0
aF79.0
aF75.0
aF99.0
aF55.0
aF74.0
aF64.0
aF75.0
aF57.0
aF74.0
aF86.0
aF57.0
aF100.0
aF64.0
aF72.0
aF70.0
aF84.0
aF50.0
aF69.0
aF53.0
aF34.0
aF63.0
aF57.0
aF44.0
aF50.0
aF47.0
aF49.0
aaa(lp1254
g121
a(lp1255
F95.0
aF94.0
aF99.0
aF82.0
aF81.0
aF45.0
aF53.0
aF50.0
aF78.0
aF98.0
aF60.0
aF57.0
aF79.0
aF59.0
aF79.0
aF66.0
aF70.0
aF66.0
aF94.0
aF72.0
aF108.0
aF69.0
aF62.0
aF44.0
aF50.0
aF46.0
aF46.0
aF49.0
aaa(lp1256
g123
a(lp1257
F95.0
aF94.0
aF99.0
aF82.0
aF81.0
aF45.0
aF53.0
aF50.0
aF99.0
aF60.0
aF57.0
aF79.0
aF59.0
aF79.0
aF66.0
aF69.0
aF69.0
aF72.0
aF64.0
aF76.0
aF90.0
aF99.0
aF67.0
aF51.0
aF46.0
aF52.0
aF49.0
aF41.0
aF66.0
aF49.0
aaa(lp1258
g125
a(lp1259
F68.0
aF85.0
aF45.0
aF53.0
aF50.0
aF99.0
aF60.0
aF57.0
aF79.0
aF59.0
aF79.0
aF66.0
aF99.0
aF55.0
aF86.0
aF92.0
aF75.0
aF57.0
aF74.0
aF57.0
aF72.0
aF64.0
aF76.0
aF90.0
aF50.0
aF69.0
aF53.0
aF34.0
aF63.0
aF57.0
aF51.0
aF46.0
aF51.0
aF32.0
aF68.0
aF51.0
aaa(lp1260
g127
a(lp1261
F68.0
aF85.0
aF45.0
aF53.0
aF50.0
aF99.0
aF60.0
aF57.0
aF79.0
aF59.0
aF79.0
aF66.0
aF99.0
aF55.0
aF86.0
aF65.0
aF75.0
aF57.0
aF74.0
aF57.0
aF72.0
aF64.0
aF76.0
aF90.0
aF50.0
aF69.0
aF53.0
aF34.0
aF63.0
aF57.0
aF44.0
aF45.0
aF47.0
aF46.0
aF49.0
aaa(lp1262
g130
a(lp1263
F95.0
aF82.0
aF35.0
aF79.0
aF76.0
aF78.0
aF60.0
aF57.0
aF47.0
aF79.0
aF59.0
aF66.0
aF65.0
aF110.0
aF108.0
aF95.0
aF116.0
aF126.0
aF61.0
aF85.0
aF54.0
aF57.0
aF39.0
aaa(lp1264
g132
a(lp1265
F95.0
aF82.0
aF35.0
aF79.0
aF76.0
aF60.0
aF57.0
aF47.0
aF79.0
aF59.0
aF66.0
aF86.0
aF72.0
aF64.0
aF171.0
aF135.0
aF92.0
aF48.0
aF61.0
aF49.0
aaa(lp1266
g134
a(lp1267
F68.0
aF35.0
aF79.0
aF76.0
aF60.0
aF57.0
aF47.0
aF79.0
aF59.0
aF66.0
aF64.0
aF66.0
aF66.0
aF92.0
aF71.0
aF86.0
aF72.0
aF64.0
aF171.0
aF135.0
aF71.0
aF77.0
aF83.0
aF57.0
aF54.0
aF57.0
aF39.0
aaa(lp1268
g136
a(lp1269
F68.0
aF35.0
aF79.0
aF76.0
aF60.0
aF57.0
aF47.0
aF79.0
aF59.0
aF66.0
aF64.0
aF62.0
aF66.0
aF92.0
aF83.0
aF86.0
aF72.0
aF64.0
aF171.0
aF135.0
aF71.0
aF77.0
aF83.0
aF57.0
aF54.0
aF57.0
aF39.0
aaa(lp1270
g139
a(lp1271
F62.0
aF54.0
aF51.0
aF71.0
aF63.0
aF67.0
aF77.0
aF74.0
aF50.0
aF93.0
aF98.0
aF100.0
aF85.0
aF60.0
aF98.0
aF105.0
aF72.0
aF91.0
aF98.0
aF75.0
aF59.0
aF99.0
aF108.0
aF107.0
aF84.0
aF103.0
aF138.0
aF64.0
aF56.0
aF80.0
aF66.0
aF44.0
aF57.0
aF46.0
aF61.0
aF51.0
aaa(lp1272
g141
a(lp1273
F62.0
aF54.0
aF51.0
aF71.0
aF63.0
aF67.0
aF77.0
aF74.0
aF50.0
aF79.0
aF60.0
aF98.0
aF105.0
aF72.0
aF91.0
aF98.0
aF73.0
aF72.0
aF121.0
aF99.0
aF78.0
aF60.0
aF48.0
aF68.0
aF46.0
aF61.0
aF41.0
aF47.0
aaa(lp1274
g143
a(lp1275
F70.0
aF87.0
aF65.0
aF54.0
aF51.0
aF71.0
aF63.0
aF67.0
aF77.0
aF74.0
aF50.0
aF79.0
aF60.0
aF98.0
aF105.0
aF72.0
aF91.0
aF98.0
aF75.0
aF59.0
aF99.0
aF55.0
aF86.0
aF74.0
aF75.0
aF57.0
aF74.0
aF86.0
aF57.0
aF83.0
aF67.0
aF66.0
aF50.0
aF53.0
aF65.0
aF63.0
aF67.0
aF47.0
aF57.0
aF37.0
aF61.0
aF53.0
aaa(lp1276
g145
a(lp1277
F70.0
aF87.0
aF65.0
aF54.0
aF51.0
aF71.0
aF63.0
aF67.0
aF77.0
aF74.0
aF50.0
aF79.0
aF60.0
aF98.0
aF105.0
aF72.0
aF91.0
aF98.0
aF75.0
aF59.0
aF99.0
aF55.0
aF86.0
aF74.0
aF75.0
aF57.0
aF74.0
aF86.0
aF57.0
aF83.0
aF67.0
aF66.0
aF50.0
aF53.0
aF65.0
aF63.0
aF67.0
aF51.0
aF57.0
aF32.0
aF51.0
aaa(lp1278
g148
a(lp1279
F87.0
aF69.0
aF91.0
aF63.0
aF69.0
aF63.0
aF79.0
aF87.0
aF82.0
aF81.0
aF90.0
aF75.0
aF51.0
aF79.0
aF78.0
aF73.0
aF75.0
aF111.0
aF108.0
aF77.0
aF60.0
aF45.0
aF64.0
aF57.0
aaa(lp1280
g151
a(lp1281
F75.0
aF58.0
aF57.0
aF77.0
aF79.0
aF45.0
aF62.0
aF65.0
aF69.0
aF89.0
aF63.0
aF81.0
aF84.0
aF60.0
aF95.0
aF55.0
aF101.0
aF87.0
aF121.0
aF78.0
aF80.0
aF62.0
aF65.0
aF131.0
aF100.0
aF128.0
aF108.0
aF46.0
aF68.0
aF73.0
aF63.0
aF52.0
aF80.0
aF66.0
aF56.0
aF67.0
aF48.0
aF65.0
aF50.0
aF48.0
aaatp1282
Rp1283
aa(lp1284
g14
ag0
((lp1285
(lp1286
g76
a(lp1287
F-1.0
aF-1.0
aF-1.0
aF-1.0
aF-1.0
aF-1.0
aF-1.0
aF-1.0
aF-1.0
aF-1.0
aF-1.0
aF-1.0
aF-1.0
aF-1.0
aF-1.0
aF-1.0
aF-1.0
aF-1.0
aF-1.0
aF-1.0
aF-1.0
aF-1.0
aF-1.0
aF-1.0
aF-1.0
aF-1.0
aaa(lp1288
g78
a(lp1289
F-1.0
aF-1.0
aF-1.0
aF-1.0
aF-1.0
aF-1.0
aF-1.0
aF-1.0
aF-1.0
aF-1.0
aF-1.0
aF-1.0
aF-1.0
aF-1.0
aF-1.0
aF-1.0
aF-1.0
aF-1.0
aF-1.0
aF-1.0
aF-1.0
aF-1.0
aF-1.0
aF-1.0
aF-1.0
aF-1.0
aF-1.0
aF-1.0
aF-1.0
aaa(lp1290
g80
a(lp1291
F-1.0
aF-1.0
aF-1.0
aF-1.0
aF-1.0
aF-1.0
aF-1.0
aF-1.0
aF-1.0
aF-1.0
aF-1.0
aF-1.0
aF-1.0
aF-1.0
aF-1.0
aF-1.0
aaa(lp1292
g82
a(lp1293
F-1.0
aF-1.0
aF-1.0
aF-1.0
aF-1.0
aF-1.0
aF-1.0
aF-1.0
aF-1.0
aF-1.0
aF-1.0
aF-1.0
aF-1.0
aF-1.0
aF-1.0
aF-1.0
aaa(lp1294
g85
a(lp1295
F-1.0
aF-1.0
aF-1.0
aF-1.0
aF-1.0
aF-1.0
aF-1.0
aF-1.0
aF-1.0
aF-1.0
aF-1.0
aF-1.0
aF-1.0
aF-1.0
aF-1.0
aF-1.0
aF-1.0
aF-1.0
aF-1.0
aF-1.0
aF-1.0
aF-1.0
aF-1.0
aF-1.0
aF-1.0
aF-1.0
aF-1.0
aF-1.0
aF-1.0
aaa(lp1296
g87
a(lp1297
F-1.0
aF-1.0
aF-1.0
aF-1.0
aF-1.0
aF-1.0
aF-1.0
aF-1.0
aF-1.0
aF-1.0
aF-1.0
aF-1.0
aF-1.0
aF-1.0
aF-1.0
aF-1.0
aF-1.0
aF-1.0
aF-1.0
aF-1.0
aF-1.0
aF-1.0
aF-1.0
aF-1.0
aF-1.0
aaa(lp1298
g89
a(lp1299
F-1.0
aF-1.0
aF-1.0
aF-1.0
aF-1.0
aF-1.0
aF-1.0
aF-1.0
aF-1.0
aF-1.0
aF-1.0
aF-1.0
aF-1.0
aaa(lp1300
g91
a(lp1301
F-1.0
aF-1.0
aF-1.0
aF-1.0
aF-1.0
aF-1.0
aF-1.0
aF-1.0
aF-1.0
aF-1.0
aF-1.0
aF-1.0
aF-1.0
aaa(lp1302
g94
a(lp1303
F-1.0
aF-1.0
aF-1.0
aF-1.0
aF-1.0
aF-1.0
aF-1.0
aF-1.0
aF-1.0
aF-1.0
aF-1.0
aF-1.0
aF-1.0
aF-1.0
aF-1.0
aF-1.0
aF-1.0
aF-1.0
aF-1.0
aF-1.0
aF-1.0
aF-1.0
aF-1.0
aF-1.0
aF-1.0
aF-1.0
aF-1.0
aF-1.0
aF-1.0
aaa(lp1304
g96
a(lp1305
F-1.0
aF-1.0
aF-1.0
aF-1.0
aF-1.0
aF-1.0
aF-1.0
aF-1.0
aF-1.0
aF-1.0
aF-1.0
aF-1.0
aF-1.0
aF-1.0
aF-1.0
aF-1.0
aF-1.0
aF-1.0
aF-1.0
aF-1.0
aF-1.0
aF-1.0
aF-1.0
aF-1.0
aF-1.0
aF-1.0
aF-1.0
aF-1.0
aaa(lp1306
g98
a(lp1307
F-1.0
aF-1.0
aF-1.0
aF-1.0
aF-1.0
aF-1.0
aF-1.0
aF-1.0
aF-1.0
aF-1.0
aF-1.0
aF-1.0
aF-1.0
aF-1.0
aF-1.0
aaa(lp1308
g100
a(lp1309
F-1.0
aF-1.0
aF-1.0
aF-1.0
aF-1.0
aF-1.0
aF-1.0
aF-1.0
aF-1.0
aF-1.0
aF-1.0
aF-1.0
aF-1.0
aF-1.0
aF-1.0
aaa(lp1310
g103
a(lp1311
F-1.0
aF-1.0
aF-1.0
aF-1.0
aF-1.0
aF-1.0
aF-1.0
aF-1.0
aF-1.0
aF-1.0
aF-1.0
aF-1.0
aF-1.0
aF-1.0
aF-1.0
aF-1.0
aF-1.0
aF-1.0
aF-1.0
aF-1.0
aF-1.0
aF-1.0
aF-1.0
aF-1.0
aF-1.0
aF-1.0
aF-1.0
aF-1.0
aaa(lp1312
g105
a(lp1313
F-1.0
aF-1.0
aF-1.0
aF-1.0
aF-1.0
aF-1.0
aF-1.0
aF-1.0
aF-1.0
aF-1.0
aF-1.0
aF-1.0
aF-1.0
aF-1.0
aF-1.0
aF-1.0
aF-1.0
aF-1.0
aF-1.0
aF-1.0
aF-1.0
aF-1.0
aF-1.0
aF-1.0
aF-1.0
aF-1.0
aF-1.0
aF-1.0
aaa(lp1314
g107
a(lp1315
F-1.0
aF-1.0
aF-1.0
aF-1.0
aF-1.0
aF-1.0
aF-1.0
aF-1.0
aF-1.0
aF-1.0
aF-1.0
aF-1.0
aF-1.0
aF-1.0
aF-1.0
aF-1.0
aF-1.0
aaa(lp1316
g109
a(lp1317
F-1.0
aF-1.0
aF-1.0
aF-1.0
aF-1.0
aF-1.0
aF-1.0
aF-1.0
aF-1.0
aF-1.0
aF-1.0
aF-1.0
aF-1.0
aF-1.0
aF-1.0
aF-1.0
aF-1.0
aaa(lp1318
g112
a(lp1319
F-1.0
aF-1.0
aF-1.0
aF-1.0
aF-1.0
aF-1.0
aF-1.0
aF-1.0
aF-1.0
aF-1.0
aF-1.0
aF-1.0
aF-1.0
aF-1.0
aF-1.0
aF-1.0
aF-1.0
aF-1.0
aF-1.0
aF-1.0
aF-1.0
aF-1.0
aF-1.0
aF-1.0
aF-1.0
aF-1.0
aF-1.0
aF-1.0
aF-1.0
aF-1.0
aF-1.0
aF-1.0
aaa(lp1320
g114
a(lp1321
F-1.0
aF-1.0
aF-1.0
aF-1.0
aF-1.0
aF-1.0
aF-1.0
aF-1.0
aF-1.0
aF-1.0
aF-1.0
aF-1.0
aF-1.0
aF-1.0
aF-1.0
aF-1.0
aF-1.0
aF-1.0
aF-1.0
aF-1.0
aF-1.0
aF-1.0
aF-1.0
aaa(lp1322
g116
a(lp1323
F-1.0
aF-1.0
aF-1.0
aF-1.0
aF-1.0
aF-1.0
aF-1.0
aF-1.0
aF-1.0
aF-1.0
aF-1.0
aF-1.0
aF-1.0
aF-1.0
aF-1.0
aaa(lp1324
g118
a(lp1325
F-1.0
aF-1.0
aF-1.0
aF-1.0
aF-1.0
aF-1.0
aF-1.0
aF-1.0
aF-1.0
aF-1.0
aF-1.0
aF-1.0
aF-1.0
aF-1.0
aF-1.0
aF-1.0
aaa(lp1326
g121
a(lp1327
F-1.0
aF-1.0
aF-1.0
aF-1.0
aF-1.0
aF-1.0
aF-1.0
aF-1.0
aF-1.0
aF-1.0
aF-1.0
aF-1.0
aF-1.0
aF-1.0
aF-1.0
aF-1.0
aF-1.0
aF-1.0
aF-1.0
aF-1.0
aF-1.0
aF-1.0
aF-1.0
aF-1.0
aF-1.0
aF-1.0
aF-1.0
aF-1.0
aF-1.0
aF-1.0
aF-1.0
aF-1.0
aaa(lp1328
g123
a(lp1329
F-1.0
aF-1.0
aF-1.0
aF-1.0
aF-1.0
aF-1.0
aF-1.0
aF-1.0
aF-1.0
aF-1.0
aF-1.0
aF-1.0
aF-1.0
aF-1.0
aF-1.0
aF-1.0
aF-1.0
aF-1.0
aF-1.0
aF-1.0
aF-1.0
aF-1.0
aF-1.0
aF-1.0
aF-1.0
aaa(lp1330
g125
a(lp1331
F-1.0
aF-1.0
aF-1.0
aF-1.0
aF-1.0
aF-1.0
aF-1.0
aF-1.0
aF-1.0
aF-1.0
aF-1.0
aF-1.0
aF-1.0
aF-1.0
aaa(lp1332
g127
a(lp1333
F-1.0
aF-1.0
aF-1.0
aF-1.0
aF-1.0
aF-1.0
aF-1.0
aF-1.0
aF-1.0
aF-1.0
aF-1.0
aF-1.0
aF-1.0
aF-1.0
aF-1.0
aaa(lp1334
g130
a(lp1335
F-1.0
aF-1.0
aF-1.0
aF-1.0
aF-1.0
aF-1.0
aF-1.0
aF-1.0
aF-1.0
aF-1.0
aF-1.0
aF-1.0
aF-1.0
aF-1.0
aF-1.0
aF-1.0
aF-1.0
aF-1.0
aF-1.0
aF-1.0
aF-1.0
aF-1.0
aF-1.0
aF-1.0
aF-1.0
aF-1.0
aF-1.0
aF-1.0
aF-1.0
aF-1.0
aF-1.0
aF-1.0
aF-1.0
aaa(lp1336
g132
a(lp1337
F-1.0
aF-1.0
aF-1.0
aF-1.0
aF-1.0
aF-1.0
aF-1.0
aF-1.0
aF-1.0
aF-1.0
aF-1.0
aF-1.0
aF-1.0
aF-1.0
aF-1.0
aF-1.0
aF-1.0
aF-1.0
aF-1.0
aF-1.0
aF-1.0
aF-1.0
aF-1.0
aF-1.0
aF-1.0
aF-1.0
aF-1.0
aF-1.0
aF-1.0
aF-1.0
aF-1.0
aaa(lp1338
g134
a(lp1339
F-1.0
aF-1.0
aF-1.0
aF-1.0
aF-1.0
aF-1.0
aF-1.0
aF-1.0
aF-1.0
aF-1.0
aF-1.0
aF-1.0
aF-1.0
aF-1.0
aF-1.0
aF-1.0
aF-1.0
aF-1.0
aF-1.0
aF-1.0
aaa(lp1340
g136
a(lp1341
F-1.0
aF-1.0
aF-1.0
aF-1.0
aF-1.0
aF-1.0
aF-1.0
aF-1.0
aF-1.0
aF-1.0
aF-1.0
aF-1.0
aF-1.0
aF-1.0
aF-1.0
aF-1.0
aF-1.0
aF-1.0
aF-1.0
aF-1.0
aaa(lp1342
g139
a(lp1343
F-1.0
aF-1.0
aF-1.0
aF-1.0
aF-1.0
aF-1.0
aF-1.0
aF-1.0
aF-1.0
aF-1.0
aF-1.0
aF-1.0
aF-1.0
aF-1.0
aF-1.0
aF-1.0
aF-1.0
aF-1.0
aF-1.0
aF-1.0
aF-1.0
aF-1.0
aaa(lp1344
g141
a(lp1345
F-1.0
aF-1.0
aF-1.0
aF-1.0
aF-1.0
aF-1.0
aF-1.0
aF-1.0
aF-1.0
aF-1.0
aF-1.0
aF-1.0
aF-1.0
aF-1.0
aF-1.0
aF-1.0
aF-1.0
aF-1.0
aF-1.0
aF-1.0
aF-1.0
aF-1.0
aF-1.0
aaa(lp1346
g143
a(lp1347
F-1.0
aF-1.0
aF-1.0
aF-1.0
aF-1.0
aF-1.0
aaa(lp1348
g145
a(lp1349
F-1.0
aF-1.0
aF-1.0
aF-1.0
aF-1.0
aF-1.0
aF-1.0
aaa(lp1350
g148
a(lp1351
F-1.0
aF-1.0
aF-1.0
aF-1.0
aF-1.0
aF-1.0
aF-1.0
aF-1.0
aF-1.0
aF-1.0
aF-1.0
aF-1.0
aF-1.0
aF-1.0
aF-1.0
aF-1.0
aF-1.0
aF-1.0
aF-1.0
aF-1.0
aF-1.0
aF-1.0
aF-1.0
aF-1.0
aF-1.0
aF-1.0
aF-1.0
aF-1.0
aF-1.0
aF-1.0
aF-1.0
aF-1.0
aF-1.0
aF-1.0
aaa(lp1352
g151
a(lp1353
aatp1354
Rp1355
aa(lp1356
g19
ag0
((lp1357
(lp1358
g76
a(lp1359
F-1.0
aF-1.0
aF-1.0
aF-1.0
aF-1.0
aF-1.0
aF-1.0
aF-1.0
aF-1.0
aF-1.0
aF-1.0
aF-1.0
aF-1.0
aF-1.0
aF-1.0
aF-1.0
aF-1.0
aF-1.0
aF-1.0
aF-1.0
aF-1.0
aF-1.0
aF-1.0
aF-1.0
aF-1.0
aF-1.0
aF-1.0
aF-1.0
aF-1.0
aF-1.0
aF-1.0
aF-1.0
aF-1.0
aF-1.0
aF-1.0
aF-1.0
aaa(lp1360
g78
a(lp1361
F-1.0
aF-1.0
aF-1.0
aF-1.0
aF-1.0
aF-1.0
aF-1.0
aF-1.0
aF-1.0
aF-1.0
aF-1.0
aF-1.0
aF-1.0
aF-1.0
aF-1.0
aF-1.0
aF-1.0
aF-1.0
aF-1.0
aF-1.0
aF-1.0
aF-1.0
aF-1.0
aF-1.0
aF-1.0
aF-1.0
aF-1.0
aF-1.0
aF-1.0
aF-1.0
aF-1.0
aF-1.0
aF-1.0
aF-1.0
aF-1.0
aF-1.0
aF-1.0
aF-1.0
aaa(lp1362
g80
a(lp1363
F-1.0
aF-1.0
aF-1.0
aF-1.0
aF-1.0
aF-1.0
aF-1.0
aF-1.0
aF-1.0
aF-1.0
aF-1.0
aF-1.0
aF-1.0
aF-1.0
aF-1.0
aF-1.0
aF-1.0
aF-1.0
aF-1.0
aF-1.0
aF-1.0
aF-1.0
aF-1.0
aF-1.0
aF-1.0
aF-1.0
aF-1.0
aF-1.0
aF-1.0
aF-1.0
aF-1.0
aF-1.0
aF-1.0
aF-1.0
aF-1.0
aF-1.0
aF-1.0
aF-1.0
aF-1.0
aF-1.0
aF-1.0
aF-1.0
aF-1.0
aF-1.0
aF-1.0
aaa(lp1364
g82
a(lp1365
F-1.0
aF-1.0
aF-1.0
aF-1.0
aF-1.0
aF-1.0
aF-1.0
aF-1.0
aF-1.0
aF-1.0
aF-1.0
aF-1.0
aF-1.0
aF-1.0
aF-1.0
aF-1.0
aF-1.0
aF-1.0
aF-1.0
aF-1.0
aF-1.0
aF-1.0
aF-1.0
aF-1.0
aF-1.0
aF-1.0
aF-1.0
aF-1.0
aF-1.0
aF-1.0
aF-1.0
aF-1.0
aF-1.0
aF-1.0
aF-1.0
aF-1.0
aF-1.0
aF-1.0
aF-1.0
aF-1.0
aF-1.0
aF-1.0
aF-1.0
aF-1.0
aF-1.0
aaa(lp1366
g85
a(lp1367
F-1.0
aF-1.0
aF-1.0
aF-1.0
aF-1.0
aF-1.0
aF-1.0
aF-1.0
aF-1.0
aF-1.0
aF-1.0
aF-1.0
aF-1.0
aF-1.0
aF-1.0
aF-1.0
aF-1.0
aF-1.0
aF-1.0
aF-1.0
aF-1.0
aF-1.0
aF-1.0
aF-1.0
aF-1.0
aF-1.0
aF-1.0
aF-1.0
aF-1.0
aF-1.0
aF-1.0
aF-1.0
aF-1.0
aF-1.0
aF-1.0
aF-1.0
aF-1.0
aF-1.0
aF-1.0
aF-1.0
aF-1.0
aF-1.0
aaa(lp1368
g87
a(lp1369
F-1.0
aF-1.0
aF-1.0
aF-1.0
aF-1.0
aF-1.0
aF-1.0
aF-1.0
aF-1.0
aF-1.0
aF-1.0
aF-1.0
aF-1.0
aF-1.0
aF-1.0
aF-1.0
aF-1.0
aF-1.0
aF-1.0
aF-1.0
aF-1.0
aF-1.0
aF-1.0
aF-1.0
aF-1.0
aF-1.0
aF-1.0
aF-1.0
aF-1.0
aF-1.0
aF-1.0
aF-1.0
aF-1.0
aF-1.0
aF-1.0
aF-1.0
aF-1.0
aF-1.0
aF-1.0
aF-1.0
aF-1.0
aF-1.0
aF-1.0
aaa(lp1370
g89
a(lp1371
F-1.0
aF-1.0
aF-1.0
aF-1.0
aF-1.0
aF-1.0
aF-1.0
aF-1.0
aF-1.0
aF-1.0
aF-1.0
aF-1.0
aF-1.0
aF-1.0
aF-1.0
aF-1.0
aF-1.0
aF-1.0
aF-1.0
aF-1.0
aF-1.0
aF-1.0
aF-1.0
aF-1.0
aF-1.0
aF-1.0
aF-1.0
aF-1.0
aF-1.0
aF-1.0
aF-1.0
aF-1.0
aF-1.0
aF-1.0
aF-1.0
aF-1.0
aF-1.0
aF-1.0
aF-1.0
aF-1.0
aF-1.0
aF-1.0
aF-1.0
aF-1.0
aF-1.0
aF-1.0
aF-1.0
aF-1.0
aF-1.0
aF-1.0
aaa(lp1372
g91
a(lp1373
F-1.0
aF-1.0
aF-1.0
aF-1.0
aF-1.0
aF-1.0
aF-1.0
aF-1.0
aF-1.0
aF-1.0
aF-1.0
aF-1.0
aF-1.0
aF-1.0
aF-1.0
aF-1.0
aF-1.0
aF-1.0
aF-1.0
aF-1.0
aF-1.0
aF-1.0
aF-1.0
aF-1.0
aF-1.0
aF-1.0
aF-1.0
aF-1.0
aF-1.0
aF-1.0
aF-1.0
aF-1.0
aF-1.0
aF-1.0
aF-1.0
aF-1.0
aF-1.0
aF-1.0
aF-1.0
aF-1.0
aF-1.0
aF-1.0
aF-1.0
aF-1.0
aF-1.0
aF-1.0
aF-1.0
aF-1.0
aF-1.0
aF-1.0
aaa(lp1374
g94
a(lp1375
F-1.0
aF-1.0
aF-1.0
aF-1.0
aF-1.0
aF-1.0
aF-1.0
aF-1.0
aF-1.0
aF-1.0
aF-1.0
aF-1.0
aF-1.0
aF-1.0
aF-1.0
aF-1.0
aF-1.0
aF-1.0
aF-1.0
aF-1.0
aF-1.0
aF-1.0
aF-1.0
aF-1.0
aF-1.0
aF-1.0
aF-1.0
aF-1.0
aF-1.0
aF-1.0
aF-1.0
aF-1.0
aF-1.0
aF-1.0
aF-1.0
aF-1.0
aF-1.0
aF-1.0
aF-1.0
aaa(lp1376
g96
a(lp1377
F-1.0
aF-1.0
aF-1.0
aF-1.0
aF-1.0
aF-1.0
aF-1.0
aF-1.0
aF-1.0
aF-1.0
aF-1.0
aF-1.0
aF-1.0
aF-1.0
aF-1.0
aF-1.0
aF-1.0
aF-1.0
aF-1.0
aF-1.0
aF-1.0
aF-1.0
aF-1.0
aF-1.0
aF-1.0
aF-1.0
aF-1.0
aF-1.0
aF-1.0
aF-1.0
aF-1.0
aF-1.0
aF-1.0
aF-1.0
aF-1.0
aF-1.0
aF-1.0
aF-1.0
aF-1.0
aF-1.0
aF-1.0
aF-1.0
aF-1.0
aF-1.0
aaa(lp1378
g98
a(lp1379
F-1.0
aF-1.0
aF-1.0
aF-1.0
aF-1.0
aF-1.0
aF-1.0
aF-1.0
aF-1.0
aF-1.0
aF-1.0
aF-1.0
aF-1.0
aF-1.0
aF-1.0
aF-1.0
aF-1.0
aF-1.0
aF-1.0
aF-1.0
aF-1.0
aF-1.0
aF-1.0
aF-1.0
aF-1.0
aF-1.0
aF-1.0
aF-1.0
aF-1.0
aF-1.0
aF-1.0
aF-1.0
aF-1.0
aF-1.0
aF-1.0
aF-1.0
aF-1.0
aF-1.0
aF-1.0
aF-1.0
aF-1.0
aF-1.0
aF-1.0
aF-1.0
aF-1.0
aF-1.0
aF-1.0
aF-1.0
aF-1.0
aF-1.0
aF-1.0
aaa(lp1380
g100
a(lp1381
F-1.0
aF-1.0
aF-1.0
aF-1.0
aF-1.0
aF-1.0
aF-1.0
aF-1.0
aF-1.0
aF-1.0
aF-1.0
aF-1.0
aF-1.0
aF-1.0
aF-1.0
aF-1.0
aF-1.0
aF-1.0
aF-1.0
aF-1.0
aF-1.0
aF-1.0
aF-1.0
aF-1.0
aF-1.0
aF-1.0
aF-1.0
aF-1.0
aF-1.0
aF-1.0
aF-1.0
aF-1.0
aF-1.0
aF-1.0
aF-1.0
aF-1.0
aF-1.0
aF-1.0
aF-1.0
aF-1.0
aF-1.0
aF-1.0
aF-1.0
aF-1.0
aF-1.0
aF-1.0
aF-1.0
aF-1.0
aF-1.0
aF-1.0
aF-1.0
aaa(lp1382
g103
a(lp1383
F-1.0
aF-1.0
aF-1.0
aF-1.0
aF-1.0
aF-1.0
aF-1.0
aF-1.0
aF-1.0
aF-1.0
aF-1.0
aF-1.0
aF-1.0
aF-1.0
aF-1.0
aF-1.0
aF-1.0
aF-1.0
aF-1.0
aF-1.0
aF-1.0
aF-1.0
aF-1.0
aF-1.0
aF-1.0
aF-1.0
aF-1.0
aF-1.0
aF-1.0
aF-1.0
aF-1.0
aF-1.0
aF-1.0
aF-1.0
aF-1.0
aF-1.0
aF-1.0
aaa(lp1384
g105
a(lp1385
F-1.0
aF-1.0
aF-1.0
aF-1.0
aF-1.0
aF-1.0
aF-1.0
aF-1.0
aF-1.0
aF-1.0
aF-1.0
aF-1.0
aF-1.0
aF-1.0
aF-1.0
aF-1.0
aF-1.0
aF-1.0
aF-1.0
aF-1.0
aF-1.0
aF-1.0
aF-1.0
aF-1.0
aF-1.0
aF-1.0
aF-1.0
aF-1.0
aF-1.0
aF-1.0
aF-1.0
aF-1.0
aF-1.0
aF-1.0
aF-1.0
aF-1.0
aF-1.0
aF-1.0
aF-1.0
aF-1.0
aF-1.0
aaa(lp1386
g107
a(lp1387
F-1.0
aF-1.0
aF-1.0
aF-1.0
aF-1.0
aF-1.0
aF-1.0
aF-1.0
aF-1.0
aF-1.0
aF-1.0
aF-1.0
aF-1.0
aF-1.0
aF-1.0
aF-1.0
aF-1.0
aF-1.0
aF-1.0
aF-1.0
aF-1.0
aF-1.0
aF-1.0
aF-1.0
aF-1.0
aF-1.0
aF-1.0
aF-1.0
aF-1.0
aF-1.0
aF-1.0
aF-1.0
aF-1.0
aF-1.0
aF-1.0
aF-1.0
aF-1.0
aF-1.0
aF-1.0
aF-1.0
aF-1.0
aF-1.0
aF-1.0
aF-1.0
aF-1.0
aF-1.0
aF-1.0
aaa(lp1388
g109
a(lp1389
F-1.0
aF-1.0
aF-1.0
aF-1.0
aF-1.0
aF-1.0
aF-1.0
aF-1.0
aF-1.0
aF-1.0
aF-1.0
aF-1.0
aF-1.0
aF-1.0
aF-1.0
aF-1.0
aF-1.0
aF-1.0
aF-1.0
aF-1.0
aF-1.0
aF-1.0
aF-1.0
aF-1.0
aF-1.0
aF-1.0
aF-1.0
aF-1.0
aF-1.0
aF-1.0
aF-1.0
aF-1.0
aF-1.0
aF-1.0
aF-1.0
aF-1.0
aF-1.0
aF-1.0
aF-1.0
aF-1.0
aF-1.0
aF-1.0
aF-1.0
aF-1.0
aF-1.0
aF-1.0
aF-1.0
aaa(lp1390
g112
a(lp1391
F-1.0
aF-1.0
aF-1.0
aF-1.0
aF-1.0
aF-1.0
aF-1.0
aF-1.0
aF-1.0
aF-1.0
aF-1.0
aF-1.0
aF-1.0
aF-1.0
aF-1.0
aF-1.0
aF-1.0
aF-1.0
aF-1.0
aF-1.0
aF-1.0
aF-1.0
aF-1.0
aF-1.0
aF-1.0
aF-1.0
aF-1.0
aF-1.0
aF-1.0
aF-1.0
aF-1.0
aF-1.0
aF-1.0
aF-1.0
aF-1.0
aF-1.0
aF-1.0
aF-1.0
aF-1.0
aF-1.0
aF-1.0
aF-1.0
aF-1.0
aF-1.0
aF-1.0
aaa(lp1392
g114
a(lp1393
F-1.0
aF-1.0
aF-1.0
aF-1.0
aF-1.0
aF-1.0
aF-1.0
aF-1.0
aF-1.0
aF-1.0
aF-1.0
aF-1.0
aF-1.0
aF-1.0
aF-1.0
aF-1.0
aF-1.0
aF-1.0
aF-1.0
aF-1.0
aF-1.0
aF-1.0
aF-1.0
aF-1.0
aF-1.0
aF-1.0
aF-1.0
aF-1.0
aF-1.0
aF-1.0
aF-1.0
aF-1.0
aF-1.0
aF-1.0
aF-1.0
aF-1.0
aF-1.0
aF-1.0
aF-1.0
aF-1.0
aF-1.0
aF-1.0
aF-1.0
aF-1.0
aF-1.0
aF-1.0
aaa(lp1394
g116
a(lp1395
F-1.0
aF-1.0
aF-1.0
aF-1.0
aF-1.0
aF-1.0
aF-1.0
aF-1.0
aF-1.0
aF-1.0
aF-1.0
aF-1.0
aF-1.0
aF-1.0
aF-1.0
aF-1.0
aF-1.0
aF-1.0
aF-1.0
aF-1.0
aF-1.0
aF-1.0
aF-1.0
aF-1.0
aF-1.0
aF-1.0
aF-1.0
aF-1.0
aF-1.0
aF-1.0
aF-1.0
aF-1.0
aF-1.0
aF-1.0
aF-1.0
aF-1.0
aF-1.0
aF-1.0
aF-1.0
aF-1.0
aF-1.0
aF-1.0
aF-1.0
aF-1.0
aF-1.0
aF-1.0
aF-1.0
aF-1.0
aF-1.0
aaa(lp1396
g118
a(lp1397
F-1.0
aF-1.0
aF-1.0
aF-1.0
aF-1.0
aF-1.0
aF-1.0
aF-1.0
aF-1.0
aF-1.0
aF-1.0
aF-1.0
aF-1.0
aF-1.0
aF-1.0
aF-1.0
aF-1.0
aF-1.0
aF-1.0
aF-1.0
aF-1.0
aF-1.0
aF-1.0
aF-1.0
aF-1.0
aF-1.0
aF-1.0
aF-1.0
aF-1.0
aF-1.0
aF-1.0
aF-1.0
aF-1.0
aF-1.0
aF-1.0
aF-1.0
aF-1.0
aF-1.0
aF-1.0
aF-1.0
aF-1.0
aF-1.0
aF-1.0
aF-1.0
aF-1.0
aF-1.0
aF-1.0
aF-1.0
aF-1.0
aaa(lp1398
g121
a(lp1399
F-1.0
aF-1.0
aF-1.0
aF-1.0
aF-1.0
aF-1.0
aF-1.0
aF-1.0
aF-1.0
aF-1.0
aF-1.0
aF-1.0
aF-1.0
aF-1.0
aF-1.0
aF-1.0
aF-1.0
aF-1.0
aF-1.0
aF-1.0
aF-1.0
aF-1.0
aF-1.0
aF-1.0
aF-1.0
aF-1.0
aF-1.0
aF-1.0
aF-1.0
aF-1.0
aF-1.0
aF-1.0
aF-1.0
aF-1.0
aF-1.0
aF-1.0
aF-1.0
aF-1.0
aF-1.0
aF-1.0
aaa(lp1400
g123
a(lp1401
F-1.0
aF-1.0
aF-1.0
aF-1.0
aF-1.0
aF-1.0
aF-1.0
aF-1.0
aF-1.0
aF-1.0
aF-1.0
aF-1.0
aF-1.0
aF-1.0
aF-1.0
aF-1.0
aF-1.0
aF-1.0
aF-1.0
aF-1.0
aF-1.0
aF-1.0
aF-1.0
aF-1.0
aF-1.0
aF-1.0
aF-1.0
aF-1.0
aF-1.0
aF-1.0
aF-1.0
aF-1.0
aF-1.0
aF-1.0
aF-1.0
aF-1.0
aF-1.0
aF-1.0
aF-1.0
aF-1.0
aF-1.0
aF-1.0
aF-1.0
aF-1.0
aF-1.0
aaa(lp1402
g125
a(lp1403
F-1.0
aF-1.0
aF-1.0
aF-1.0
aF-1.0
aF-1.0
aF-1.0
aF-1.0
aF-1.0
aF-1.0
aF-1.0
aF-1.0
aF-1.0
aF-1.0
aF-1.0
aF-1.0
aF-1.0
aF-1.0
aF-1.0
aF-1.0
aF-1.0
aF-1.0
aF-1.0
aF-1.0
aF-1.0
aF-1.0
aF-1.0
aF-1.0
aF-1.0
aF-1.0
aF-1.0
aF-1.0
aF-1.0
aF-1.0
aF-1.0
aF-1.0
aF-1.0
aF-1.0
aF-1.0
aF-1.0
aF-1.0
aF-1.0
aF-1.0
aF-1.0
aF-1.0
aF-1.0
aF-1.0
aF-1.0
aF-1.0
aF-1.0
aaa(lp1404
g127
a(lp1405
F-1.0
aF-1.0
aF-1.0
aF-1.0
aF-1.0
aF-1.0
aF-1.0
aF-1.0
aF-1.0
aF-1.0
aF-1.0
aF-1.0
aF-1.0
aF-1.0
aF-1.0
aF-1.0
aF-1.0
aF-1.0
aF-1.0
aF-1.0
aF-1.0
aF-1.0
aF-1.0
aF-1.0
aF-1.0
aF-1.0
aF-1.0
aF-1.0
aF-1.0
aF-1.0
aF-1.0
aF-1.0
aF-1.0
aF-1.0
aF-1.0
aF-1.0
aF-1.0
aF-1.0
aF-1.0
aF-1.0
aF-1.0
aF-1.0
aF-1.0
aF-1.0
aF-1.0
aF-1.0
aF-1.0
aF-1.0
aF-1.0
aF-1.0
aaa(lp1406
g130
a(lp1407
F-1.0
aF-1.0
aF-1.0
aF-1.0
aF-1.0
aF-1.0
aF-1.0
aF-1.0
aF-1.0
aF-1.0
aF-1.0
aF-1.0
aF-1.0
aF-1.0
aF-1.0
aF-1.0
aF-1.0
aF-1.0
aF-1.0
aF-1.0
aF-1.0
aF-1.0
aF-1.0
aF-1.0
aF-1.0
aF-1.0
aF-1.0
aF-1.0
aF-1.0
aF-1.0
aF-1.0
aF-1.0
aF-1.0
aF-1.0
aF-1.0
aF-1.0
aF-1.0
aF-1.0
aF-1.0
aF-1.0
aF-1.0
aF-1.0
aF-1.0
aF-1.0
aaa(lp1408
g132
a(lp1409
F-1.0
aF-1.0
aF-1.0
aF-1.0
aF-1.0
aF-1.0
aF-1.0
aF-1.0
aF-1.0
aF-1.0
aF-1.0
aF-1.0
aF-1.0
aF-1.0
aF-1.0
aF-1.0
aF-1.0
aF-1.0
aF-1.0
aF-1.0
aF-1.0
aF-1.0
aF-1.0
aF-1.0
aF-1.0
aF-1.0
aF-1.0
aF-1.0
aF-1.0
aF-1.0
aF-1.0
aF-1.0
aF-1.0
aF-1.0
aF-1.0
aF-1.0
aF-1.0
aF-1.0
aF-1.0
aF-1.0
aF-1.0
aF-1.0
aF-1.0
aF-1.0
aF-1.0
aF-1.0
aF-1.0
aF-1.0
aF-1.0
aaa(lp1410
g134
a(lp1411
F-1.0
aF-1.0
aF-1.0
aF-1.0
aF-1.0
aF-1.0
aF-1.0
aF-1.0
aF-1.0
aF-1.0
aF-1.0
aF-1.0
aF-1.0
aF-1.0
aF-1.0
aF-1.0
aF-1.0
aF-1.0
aF-1.0
aF-1.0
aF-1.0
aF-1.0
aF-1.0
aF-1.0
aF-1.0
aF-1.0
aF-1.0
aF-1.0
aF-1.0
aF-1.0
aF-1.0
aF-1.0
aF-1.0
aF-1.0
aF-1.0
aF-1.0
aF-1.0
aF-1.0
aF-1.0
aF-1.0
aF-1.0
aF-1.0
aF-1.0
aF-1.0
aF-1.0
aF-1.0
aF-1.0
aF-1.0
aF-1.0
aF-1.0
aF-1.0
aF-1.0
aF-1.0
aaa(lp1412
g136
a(lp1413
F-1.0
aF-1.0
aF-1.0
aF-1.0
aF-1.0
aF-1.0
aF-1.0
aF-1.0
aF-1.0
aF-1.0
aF-1.0
aF-1.0
aF-1.0
aF-1.0
aF-1.0
aF-1.0
aF-1.0
aF-1.0
aF-1.0
aF-1.0
aF-1.0
aF-1.0
aF-1.0
aF-1.0
aF-1.0
aF-1.0
aF-1.0
aF-1.0
aF-1.0
aF-1.0
aF-1.0
aF-1.0
aF-1.0
aF-1.0
aF-1.0
aF-1.0
aF-1.0
aF-1.0
aF-1.0
aF-1.0
aF-1.0
aF-1.0
aF-1.0
aF-1.0
aF-1.0
aF-1.0
aF-1.0
aF-1.0
aF-1.0
aF-1.0
aF-1.0
aF-1.0
aF-1.0
aaa(lp1414
g139
a(lp1415
F-1.0
aF-1.0
aF-1.0
aF-1.0
aF-1.0
aF-1.0
aF-1.0
aF-1.0
aF-1.0
aF-1.0
aF-1.0
aF-1.0
aF-1.0
aF-1.0
aF-1.0
aF-1.0
aF-1.0
aF-1.0
aF-1.0
aF-1.0
aF-1.0
aF-1.0
aF-1.0
aF-1.0
aF-1.0
aF-1.0
aF-1.0
aF-1.0
aF-1.0
aF-1.0
aF-1.0
aF-1.0
aF-1.0
aF-1.0
aF-1.0
aF-1.0
aF-1.0
aF-1.0
aF-1.0
aF-1.0
aF-1.0
aF-1.0
aaa(lp1416
g141
a(lp1417
F-1.0
aF-1.0
aF-1.0
aF-1.0
aF-1.0
aF-1.0
aF-1.0
aF-1.0
aF-1.0
aF-1.0
aF-1.0
aF-1.0
aF-1.0
aF-1.0
aF-1.0
aF-1.0
aF-1.0
aF-1.0
aF-1.0
aF-1.0
aF-1.0
aF-1.0
aF-1.0
aF-1.0
aF-1.0
aF-1.0
aF-1.0
aF-1.0
aF-1.0
aF-1.0
aF-1.0
aF-1.0
aF-1.0
aF-1.0
aF-1.0
aF-1.0
aF-1.0
aF-1.0
aF-1.0
aF-1.0
aF-1.0
aF-1.0
aF-1.0
aF-1.0
aF-1.0
aF-1.0
aF-1.0
aF-1.0
aF-1.0
aaa(lp1418
g143
a(lp1419
F-1.0
aF-1.0
aF-1.0
aF-1.0
aF-1.0
aF-1.0
aF-1.0
aF-1.0
aF-1.0
aF-1.0
aF-1.0
aF-1.0
aF-1.0
aF-1.0
aF-1.0
aF-1.0
aF-1.0
aF-1.0
aF-1.0
aF-1.0
aF-1.0
aF-1.0
aF-1.0
aF-1.0
aF-1.0
aF-1.0
aF-1.0
aF-1.0
aF-1.0
aF-1.0
aF-1.0
aF-1.0
aF-1.0
aF-1.0
aF-1.0
aF-1.0
aF-1.0
aF-1.0
aF-1.0
aF-1.0
aF-1.0
aF-1.0
aF-1.0
aF-1.0
aF-1.0
aF-1.0
aF-1.0
aF-1.0
aF-1.0
aF-1.0
aF-1.0
aF-1.0
aaa(lp1420
g145
a(lp1421
F-1.0
aF-1.0
aF-1.0
aF-1.0
aF-1.0
aF-1.0
aF-1.0
aF-1.0
aF-1.0
aF-1.0
aF-1.0
aF-1.0
aF-1.0
aF-1.0
aF-1.0
aF-1.0
aF-1.0
aF-1.0
aF-1.0
aF-1.0
aF-1.0
aF-1.0
aF-1.0
aF-1.0
aF-1.0
aF-1.0
aF-1.0
aF-1.0
aF-1.0
aF-1.0
aF-1.0
aF-1.0
aF-1.0
aF-1.0
aF-1.0
aF-1.0
aF-1.0
aF-1.0
aF-1.0
aF-1.0
aF-1.0
aF-1.0
aF-1.0
aF-1.0
aF-1.0
aF-1.0
aF-1.0
aF-1.0
aF-1.0
aF-1.0
aF-1.0
aF-1.0
aaa(lp1422
g148
a(lp1423
F-1.0
aF-1.0
aF-1.0
aF-1.0
aF-1.0
aF-1.0
aF-1.0
aF-1.0
aF-1.0
aF-1.0
aF-1.0
aF-1.0
aF-1.0
aF-1.0
aF-1.0
aF-1.0
aF-1.0
aF-1.0
aF-1.0
aF-1.0
aF-1.0
aF-1.0
aF-1.0
aF-1.0
aF-1.0
aF-1.0
aF-1.0
aF-1.0
aF-1.0
aF-1.0
aF-1.0
aF-1.0
aF-1.0
aF-1.0
aF-1.0
aF-1.0
aF-1.0
aF-1.0
aF-1.0
aF-1.0
aF-1.0
aF-1.0
aaa(lp1424
g151
a(lp1425
F-1.0
aF-1.0
aF-1.0
aF-1.0
aF-1.0
aF-1.0
aF-1.0
aF-1.0
aF-1.0
aF-1.0
aF-1.0
aF-1.0
aF-1.0
aF-1.0
aF-1.0
aF-1.0
aF-1.0
aF-1.0
aF-1.0
aF-1.0
aF-1.0
aF-1.0
aF-1.0
aF-1.0
aF-1.0
aF-1.0
aF-1.0
aF-1.0
aF-1.0
aF-1.0
aF-1.0
aF-1.0
aF-1.0
aF-1.0
aF-1.0
aF-1.0
aF-1.0
aF-1.0
aF-1.0
aF-1.0
aF-1.0
aF-1.0
aF-1.0
aF-1.0
aF-1.0
aF-1.0
aF-1.0
aF-1.0
aF-1.0
aF-1.0
aF-1.0
aF-1.0
aF-1.0
aF-1.0
aF-1.0
aF-1.0
aF-1.0
aF-1.0
aF-1.0
aF-1.0
aaatp1426
Rp1427
aa(lp1428
g24
ag0
((lp1429
(lp1430
g76
a(lp1431
aa(lp1432
g78
a(lp1433
aa(lp1434
g80
a(lp1435
aa(lp1436
g82
a(lp1437
aa(lp1438
g85
a(lp1439
aa(lp1440
g87
a(lp1441
aa(lp1442
g89
a(lp1443
aa(lp1444
g91
a(lp1445
aa(lp1446
g94
a(lp1447
aa(lp1448
g96
a(lp1449
aa(lp1450
g98
a(lp1451
aa(lp1452
g100
a(lp1453
aa(lp1454
g103
a(lp1455
aa(lp1456
g105
a(lp1457
aa(lp1458
g107
a(lp1459
aa(lp1460
g109
a(lp1461
aa(lp1462
g112
a(lp1463
aa(lp1464
g114
a(lp1465
aa(lp1466
g116
a(lp1467
aa(lp1468
g118
a(lp1469
aa(lp1470
g121
a(lp1471
aa(lp1472
g123
a(lp1473
aa(lp1474
g125
a(lp1475
aa(lp1476
g127
a(lp1477
aa(lp1478
g130
a(lp1479
aa(lp1480
g132
a(lp1481
aa(lp1482
g134
a(lp1483
aa(lp1484
g136
a(lp1485
aa(lp1486
g139
a(lp1487
aa(lp1488
g141
a(lp1489
aa(lp1490
g143
a(lp1491
aa(lp1492
g145
a(lp1493
aa(lp1494
g148
a(lp1495
aa(lp1496
g151
a(lp1497
aatp1498
Rp1499
aatp1500
Rp1501
aa(lp1502
g9
ag0
((lp1503
tp1504
Rp1505
aa(lp1506
g14
ag0
((lp1507
tp1508
Rp1509
aa(lp1510
g19
ag0
((lp1511
tp1512
Rp1513
aa(lp1514
g24
ag0
((lp1515
tp1516
Rp1517
aatp1518
Rp1519
aa(lp1520
S'Processing Time (s)'
p1521
ag0
((lp1522
(lp1523
g6
ag0
((lp1524
(lp1525
g9
ag0
((lp1526
(lp1527
g76
aF8.984210526315788
aa(lp1528
g78
aF6.574242424242424
aa(lp1529
g80
aF4.831623931623931
aa(lp1530
g82
aF4.853846153846154
aa(lp1531
g85
aF9.083908045977012
aa(lp1532
g87
aF8.900520833333333
aa(lp1533
g89
aF7.227477477477478
aa(lp1534
g91
aF7.307657657657657
aa(lp1535
g94
aF7.7265625
aa(lp1536
g96
aF6.713690476190476
aa(lp1537
g98
aF4.578921568627451
aa(lp1538
g100
aF4.511764705882353
aa(lp1539
g103
aF8.23857142857143
aa(lp1540
g105
aF4.851075268817204
aa(lp1541
g107
aF3.3324074074074073
aa(lp1542
g109
aF3.3935185185185186
aa(lp1543
g112
aF7.640579710144927
aa(lp1544
g114
aF6.166129032258064
aa(lp1545
g116
aF4.7837962962962965
aa(lp1546
g118
aF4.889047619047619
aa(lp1547
g121
aF4.6190476190476195
aa(lp1548
g123
aF3.9766666666666666
aa(lp1549
g125
aF2.5013888888888887
aa(lp1550
g127
aF2.5095238095238095
aa(lp1551
g130
aF6.362318840579711
aa(lp1552
g132
aF7.8
aa(lp1553
g134
aF5.046296296296297
aa(lp1554
g136
aF5.074691358024692
aa(lp1555
g139
aF5.7212962962962965
aa(lp1556
g141
aF6.282738095238095
aa(lp1557
g143
aF3.5361111111111105
aa(lp1558
g145
aF3.667479674796748
aa(lp1559
g148
aF13.19513888888889
aa(lp1560
g151
aF7.63875
aatp1561
Rp1562
aa(lp1563
g14
ag0
((lp1564
(lp1565
g76
aF3.117948717948718
aa(lp1566
g78
aF3.836206896551724
aa(lp1567
g80
aF6.586458333333334
aa(lp1568
g82
aF6.479166666666666
aa(lp1569
g85
aF1.821264367816092
aa(lp1570
g87
aF1.9126666666666667
aa(lp1571
g89
aF3.3602564102564108
aa(lp1572
g91
aF3.4371794871794874
aa(lp1573
g94
aF3.497126436781609
aa(lp1574
g96
aF3.2982142857142853
aa(lp1575
g98
aF5.536666666666666
aa(lp1576
g100
aF5.605555555555555
aa(lp1577
g103
aF3.2970238095238096
aa(lp1578
g105
aF3.5029761904761902
aa(lp1579
g107
aF5.1607843137254905
aa(lp1580
g109
aF5.224509803921569
aa(lp1581
g112
aF4.61875
aa(lp1582
g114
aF3.1586956521739133
aa(lp1583
g116
aF4.59
aa(lp1584
g118
aF4.313541666666667
aa(lp1585
g121
aF2.378125
aa(lp1586
g123
aF2.722
aa(lp1587
g125
aF4.705952380952381
aa(lp1588
g127
aF4.642222222222221
aa(lp1589
g130
aF5.506060606060606
aa(lp1590
g132
aF3.482258064516129
aa(lp1591
g134
aF3.831666666666666
aa(lp1592
g136
aF3.9225000000000003
aa(lp1593
g139
aF5.5606060606060606
aa(lp1594
g141
aF5.217391304347826
aa(lp1595
g143
aF1.6194444444444445
aa(lp1596
g145
aF9.678571428571429
aa(lp1597
g148
aF7.569117647058825
aa(lp1598
g151
aFnan
aatp1599
Rp1600
aa(lp1601
g19
ag0
((lp1602
(lp1603
g76
aF60.00046296296297
aa(lp1604
g78
aF60.0
aa(lp1605
g80
aF60.0
aa(lp1606
g82
aF60.0
aa(lp1607
g85
aF60.0
aa(lp1608
g87
aF60.0
aa(lp1609
g89
aF60.0
aa(lp1610
g91
aF60.0
aa(lp1611
g94
aF60.0
aa(lp1612
g96
aF60.0
aa(lp1613
g98
aF60.000326797385625
aa(lp1614
g100
aF60.0
aa(lp1615
g103
aF60.0
aa(lp1616
g105
aF60.0
aa(lp1617
g107
aF60.0
aa(lp1618
g109
aF60.0
aa(lp1619
g112
aF60.000370370370376
aa(lp1620
g114
aF60.0
aa(lp1621
g116
aF60.0
aa(lp1622
g118
aF60.0
aa(lp1623
g121
aF60.0
aa(lp1624
g123
aF60.0
aa(lp1625
g125
aF60.0
aa(lp1626
g127
aF60.0
aa(lp1627
g130
aF60.0
aa(lp1628
g132
aF60.0
aa(lp1629
g134
aF60.0
aa(lp1630
g136
aF60.0
aa(lp1631
g139
aF60.0
aa(lp1632
g141
aF60.0
aa(lp1633
g143
aF60.000320512820515
aa(lp1634
g145
aF60.0
aa(lp1635
g148
aF60.0
aa(lp1636
g151
aF60.0
aatp1637
Rp1638
aa(lp1639
g24
ag0
((lp1640
(lp1641
g76
aFnan
aa(lp1642
g78
aFnan
aa(lp1643
g80
aFnan
aa(lp1644
g82
aFnan
aa(lp1645
g85
aFnan
aa(lp1646
g87
aFnan
aa(lp1647
g89
aFnan
aa(lp1648
g91
aFnan
aa(lp1649
g94
aFnan
aa(lp1650
g96
aFnan
aa(lp1651
g98
aFnan
aa(lp1652
g100
aFnan
aa(lp1653
g103
aFnan
aa(lp1654
g105
aFnan
aa(lp1655
g107
aFnan
aa(lp1656
g109
aFnan
aa(lp1657
g112
aFnan
aa(lp1658
g114
aFnan
aa(lp1659
g116
aFnan
aa(lp1660
g118
aFnan
aa(lp1661
g121
aFnan
aa(lp1662
g123
aFnan
aa(lp1663
g125
aFnan
aa(lp1664
g127
aFnan
aa(lp1665
g130
aFnan
aa(lp1666
g132
aFnan
aa(lp1667
g134
aFnan
aa(lp1668
g136
aFnan
aa(lp1669
g139
aFnan
aa(lp1670
g141
aFnan
aa(lp1671
g143
aFnan
aa(lp1672
g145
aFnan
aa(lp1673
g148
aFnan
aa(lp1674
g151
aFnan
aatp1675
Rp1676
aatp1677
Rp1678
aa(lp1679
g31
ag0
((lp1680
(lp1681
g9
ag0
((lp1682
(lp1683
g76
aF13.306638224260764
aa(lp1684
g78
aF10.601704110684521
aa(lp1685
g80
aF9.3645583527148
aa(lp1686
g82
aF9.384903316305941
aa(lp1687
g85
aF14.234361707830026
aa(lp1688
g87
aF14.816841432726571
aa(lp1689
g89
aF13.541569638522029
aa(lp1690
g91
aF13.692191946030906
aa(lp1691
g94
aF11.592499165683043
aa(lp1692
g96
aF11.8820099981493
aa(lp1693
g98
aF10.028044269233956
aa(lp1694
g100
aF9.827597650459783
aa(lp1695
g103
aF13.986821395004691
aa(lp1696
g105
aF7.34996842457802
aa(lp1697
g107
aF5.529730531688359
aa(lp1698
g109
aF5.657255879992592
aa(lp1699
g112
aF12.975830120860406
aa(lp1700
g114
aF11.318058729526806
aa(lp1701
g116
aF9.700439759390973
aa(lp1702
g118
aF9.95427695944047
aa(lp1703
g121
aF7.33360789930125
aa(lp1704
g123
aF6.890626928197574
aa(lp1705
g125
aF5.1478788589118665
aa(lp1706
g127
aF5.021513009425366
aa(lp1707
g130
aF8.21368379287122
aa(lp1708
g132
aF10.003898362945336
aa(lp1709
g134
aF8.093302514057262
aa(lp1710
g136
aF8.17307358620493
aa(lp1711
g139
aF7.991199138329011
aa(lp1712
g141
aF11.526789767694146
aa(lp1713
g143
aF4.730310664134347
aa(lp1714
g145
aF4.855909846115796
aa(lp1715
g148
aF17.963868378766016
aa(lp1716
g151
aF13.598869457943481
aatp1717
Rp1718
aa(lp1719
g14
ag0
((lp1720
(lp1721
g76
aF7.63901233155893
aa(lp1722
g78
aF8.152285769839361
aa(lp1723
g80
aF10.852122541577174
aa(lp1724
g82
aF10.404828829104444
aa(lp1725
g85
aF6.532952030527175
aa(lp1726
g87
aF8.102046323591937
aa(lp1727
g89
aF10.721330284853792
aa(lp1728
g91
aF10.96479457561655
aa(lp1729
g94
aF9.264145200124961
aa(lp1730
g96
aF8.232399031416254
aa(lp1731
g98
aF10.5033822972669
aa(lp1732
g100
aF10.722341063573658
aa(lp1733
g103
aF7.451095775977289
aa(lp1734
g105
aF8.529074040184621
aa(lp1735
g107
aF10.234407077857227
aa(lp1736
g109
aF10.285875762232324
aa(lp1737
g112
aF11.737392191114203
aa(lp1738
g114
aF9.667422736322127
aa(lp1739
g116
aF11.454693014808038
aa(lp1740
g118
aF11.059919661402006
aa(lp1741
g121
aF6.490916505996178
aa(lp1742
g123
aF8.252466971222066
aa(lp1743
g125
aF11.123138674873381
aa(lp1744
g127
aF11.5280848687343
aa(lp1745
g130
aF10.293976476782209
aa(lp1746
g132
aF7.561243694833825
aa(lp1747
g134
aF8.83067636306754
aa(lp1748
g136
aF9.139587234911728
aa(lp1749
g139
aF13.526076662497143
aa(lp1750
g141
aF10.46584449369393
aa(lp1751
g143
aF2.4504969261733804
aa(lp1752
g145
aF21.394925658093413
aa(lp1753
g148
aF13.149687384970036
aa(lp1754
g151
aFnan
aatp1755
Rp1756
aa(lp1757
g19
ag0
((lp1758
(lp1759
g76
aF0.00277777777777762
aa(lp1760
g78
aF0.0
aa(lp1761
g80
aF0.0
aa(lp1762
g82
aF0.0
aa(lp1763
g85
aF0.0
aa(lp1764
g87
aF0.0
aa(lp1765
g89
aF0.0
aa(lp1766
g91
aF0.0
aa(lp1767
g94
aF0.0
aa(lp1768
g96
aF0.0
aa(lp1769
g98
aF0.0023338001400465503
aa(lp1770
g100
aF0.0
aa(lp1771
g103
aF0.0
aa(lp1772
g105
aF0.0
aa(lp1773
g107
aF0.0
aa(lp1774
g109
aF0.0
aa(lp1775
g112
aF0.0024845199749996254
aa(lp1776
g114
aF0.0
aa(lp1777
g116
aF0.0
aa(lp1778
g118
aF0.0
aa(lp1779
g121
aF0.0
aa(lp1780
g123
aF0.0
aa(lp1781
g125
aF0.0
aa(lp1782
g127
aF0.0
aa(lp1783
g130
aF0.0
aa(lp1784
g132
aF0.0
aa(lp1785
g134
aF0.0
aa(lp1786
g136
aF0.0
aa(lp1787
g139
aF0.0
aa(lp1788
g141
aF0.0
aa(lp1789
g143
aF0.00231125081760499
aa(lp1790
g145
aF0.0
aa(lp1791
g148
aF0.0
aa(lp1792
g151
aF0.0
aatp1793
Rp1794
aa(lp1795
g24
ag0
((lp1796
(lp1797
g76
aFnan
aa(lp1798
g78
aFnan
aa(lp1799
g80
aFnan
aa(lp1800
g82
aFnan
aa(lp1801
g85
aFnan
aa(lp1802
g87
aFnan
aa(lp1803
g89
aFnan
aa(lp1804
g91
aFnan
aa(lp1805
g94
aFnan
aa(lp1806
g96
aFnan
aa(lp1807
g98
aFnan
aa(lp1808
g100
aFnan
aa(lp1809
g103
aFnan
aa(lp1810
g105
aFnan
aa(lp1811
g107
aFnan
aa(lp1812
g109
aFnan
aa(lp1813
g112
aFnan
aa(lp1814
g114
aFnan
aa(lp1815
g116
aFnan
aa(lp1816
g118
aFnan
aa(lp1817
g121
aFnan
aa(lp1818
g123
aFnan
aa(lp1819
g125
aFnan
aa(lp1820
g127
aFnan
aa(lp1821
g130
aFnan
aa(lp1822
g132
aFnan
aa(lp1823
g134
aFnan
aa(lp1824
g136
aFnan
aa(lp1825
g139
aFnan
aa(lp1826
g141
aFnan
aa(lp1827
g143
aFnan
aa(lp1828
g145
aFnan
aa(lp1829
g148
aFnan
aa(lp1830
g151
aFnan
aatp1831
Rp1832
aatp1833
Rp1834
aa(lp1835
g52
ag0
((lp1836
(lp1837
g9
ag0
((lp1838
(lp1839
g76
a(lp1840
F9.25
aF20.233333333333334
aF26.15
aF0.25
aF0.16666666666666666
aF0.35
aF1.7333333333333334
aF51.03333333333333
aF1.7166666666666666
aF11.533333333333333
aF25.4
aF0.31666666666666665
aF0.36666666666666664
aF16.5
aF18.2
aF2.4
aF1.5
aF0.16666666666666666
aF0.11666666666666667
aF0.16666666666666666
aF0.2
aF12.95
aF2.716666666666667
aF33.31666666666667
aF0.7166666666666667
aF3.25
aF46.38333333333333
aF3.033333333333333
aF6.65
aF22.616666666666667
aF20.65
aF0.15
aF0.11666666666666667
aF0.13333333333333333
aF0.5
aF0.13333333333333333
aF0.11666666666666667
aF0.21666666666666667
aaa(lp1841
g78
a(lp1842
F9.433333333333334
aF19.783333333333335
aF26.016666666666666
aF0.26666666666666666
aF0.18333333333333332
aF0.35
aF1.7333333333333334
aF49.31666666666667
aF14.733333333333333
aF17.933333333333334
aF0.35
aF0.38333333333333336
aF16.016666666666666
aF18.2
aF2.466666666666667
aF1.5
aF0.16666666666666666
aF0.25
aF0.11666666666666667
aF12.566666666666666
aF6.966666666666667
aF0.7333333333333333
aF5.55
aF6.8
aF3.183333333333333
aF0.9333333333333333
aF0.18333333333333332
aF0.08333333333333333
aF0.15
aF0.13333333333333333
aF0.15
aF0.1
aF0.21666666666666667
aaa(lp1843
g80
a(lp1844
F8.466666666666667
aF0.26666666666666666
aF0.16666666666666666
aF0.35
aF1.6833333333333333
aF49.75
aF14.533333333333333
aF18.383333333333333
aF0.3333333333333333
aF0.36666666666666664
aF15.733333333333333
aF17.85
aF2.3333333333333335
aF1.4666666666666666
aF0.5333333333333333
aF0.15
aF16.483333333333334
aF0.13333333333333333
aF0.16666666666666666
aF0.36666666666666664
aF0.15
aF0.2833333333333333
aF0.16666666666666666
aF13.05
aF6.566666666666666
aF0.7166666666666667
aF5.333333333333333
aF6.65
aF3.1
aF0.8333333333333334
aF0.26666666666666666
aF0.18333333333333332
aF0.43333333333333335
aF0.16666666666666666
aF0.13333333333333333
aF0.5166666666666667
aF0.1
aF0.1
aF0.16666666666666666
aaa(lp1845
g82
a(lp1846
F8.566666666666666
aF0.25
aF0.16666666666666666
aF0.35
aF1.7333333333333334
aF49.85
aF14.966666666666667
aF17.583333333333332
aF0.3333333333333333
aF0.36666666666666664
aF16.3
aF18.1
aF2.3833333333333333
aF1.4833333333333334
aF0.55
aF0.15
aF16.416666666666668
aF0.13333333333333333
aF0.16666666666666666
aF0.38333333333333336
aF0.15
aF0.2833333333333333
aF0.2
aF13.066666666666666
aF6.633333333333334
aF0.7166666666666667
aF5.333333333333333
aF6.683333333333334
aF3.1
aF0.85
aF0.2833333333333333
aF0.18333333333333332
aF0.43333333333333335
aF0.18333333333333332
aF0.11666666666666667
aF0.5
aF0.06666666666666667
aF0.11666666666666667
aF0.16666666666666666
aaa(lp1847
g85
a(lp1848
F14.816666666666666
aF57.666666666666664
aF0.5333333333333333
aF7.683333333333334
aF6.7
aF12.433333333333334
aF0.26666666666666666
aF0.16666666666666666
aF0.35
aF1.6833333333333333
aF50.083333333333336
aF1.7
aF11.1
aF1.4833333333333334
aF10.283333333333333
aF18.266666666666666
aF1.1
aF9.516666666666667
aF0.5833333333333334
aF12.2
aF22.766666666666666
aF20.583333333333332
aF0.15
aF0.23333333333333334
aF0.13333333333333333
aF0.5166666666666667
aF0.06666666666666667
aF0.11666666666666667
aF0.25
aaa(lp1849
g87
a(lp1850
F15.083333333333334
aF52.583333333333336
aF0.5333333333333333
aF7.366666666666666
aF6.4
aF12.5
aF0.26666666666666666
aF0.16666666666666666
aF0.3333333333333333
aF1.7666666666666666
aF49.21666666666667
aF3.95
aF40.45
aF10.083333333333334
aF18.666666666666668
aF1.1166666666666667
aF9.383333333333333
aF0.5333333333333333
aF0.15
aF0.2
aF0.31666666666666665
aF2.7
aF36.05
aF13.083333333333334
aF0.9833333333333333
aF0.18333333333333332
aF0.06666666666666667
aF0.15
aF0.1
aF0.15
aF0.11666666666666667
aF0.16666666666666666
aaa(lp1851
g89
a(lp1852
F48.06666666666667
aF1.6166666666666667
aF5.716666666666667
aF7.35
aF0.25
aF0.16666666666666666
aF0.35
aF1.7
aF49.55
aF3.75
aF39.083333333333336
aF10.283333333333333
aF18.266666666666666
aF1.0666666666666667
aF9.383333333333333
aF0.5333333333333333
aF0.15
aF16.416666666666668
aF0.13333333333333333
aF0.16666666666666666
aF0.36666666666666664
aF0.15
aF0.4
aF0.18333333333333332
aF2.566666666666667
aF34.21666666666667
aF12.533333333333333
aF0.7833333333333333
aF0.26666666666666666
aF0.18333333333333332
aF0.43333333333333335
aF0.16666666666666666
aF0.13333333333333333
aF0.5666666666666667
aF0.1
aF0.13333333333333333
aF0.23333333333333334
aaa(lp1853
g91
a(lp1854
F49.68333333333333
aF1.6
aF5.8
aF7.366666666666666
aF0.25
aF0.16666666666666666
aF0.3333333333333333
aF1.7
aF49.483333333333334
aF3.8
aF39.0
aF10.35
aF18.25
aF1.1666666666666667
aF9.783333333333333
aF0.55
aF0.16666666666666666
aF16.566666666666666
aF0.13333333333333333
aF0.16666666666666666
aF0.38333333333333336
aF0.15
aF0.4
aF0.2
aF2.65
aF34.583333333333336
aF12.733333333333333
aF0.8166666666666667
aF0.2833333333333333
aF0.2
aF0.43333333333333335
aF0.16666666666666666
aF0.15
aF0.5166666666666667
aF0.1
aF0.11666666666666667
aF0.18333333333333332
aaa(lp1855
g94
a(lp1856
F9.383333333333333
aF19.1
aF25.433333333333334
aF0.25
aF0.16666666666666666
aF0.35
aF1.7
aF49.85
aF1.7
aF11.2
aF25.25
aF0.3333333333333333
aF0.36666666666666664
aF16.1
aF18.083333333333332
aF2.3833333333333333
aF1.4666666666666666
aF0.16666666666666666
aF0.13333333333333333
aF0.16666666666666666
aF0.2
aF11.983333333333333
aF6.833333333333333
aF22.683333333333334
aF20.566666666666666
aF0.15
aF0.11666666666666667
aF0.15
aF0.5166666666666667
aF0.11666666666666667
aF0.11666666666666667
aF0.23333333333333334
aaa(lp1857
g96
a(lp1858
F9.15
aF19.45
aF27.95
aF0.25
aF0.16666666666666666
aF0.36666666666666664
aF1.7833333333333334
aF51.55
aF15.65
aF18.1
aF0.35
aF0.36666666666666664
aF16.05
aF17.983333333333334
aF2.3833333333333333
aF1.4833333333333334
aF0.16666666666666666
aF0.23333333333333334
aF0.11666666666666667
aF2.683333333333333
aF0.9333333333333333
aF0.16666666666666666
aF0.06666666666666667
aF0.11666666666666667
aF0.06666666666666667
aF0.11666666666666667
aF0.11666666666666667
aF0.16666666666666666
aaa(lp1859
g98
a(lp1860
F8.45
aF0.26666666666666666
aF0.16666666666666666
aF0.35
aF1.7
aF51.0
aF14.533333333333333
aF17.2
aF0.3333333333333333
aF0.36666666666666664
aF15.766666666666667
aF17.75
aF2.35
aF1.4833333333333334
aF0.5333333333333333
aF0.15
aF16.383333333333333
aF0.13333333333333333
aF0.15
aF0.36666666666666664
aF0.15
aF0.38333333333333336
aF0.18333333333333332
aF2.6
aF0.8166666666666667
aF0.26666666666666666
aF0.2
aF0.43333333333333335
aF0.1
aF0.15
aF0.5166666666666667
aF0.11666666666666667
aF0.08333333333333333
aF0.25
aaa(lp1861
g100
a(lp1862
F8.5
aF0.25
aF0.16666666666666666
aF0.35
aF1.7166666666666666
aF49.6
aF14.4
aF17.05
aF0.3333333333333333
aF0.35
aF15.683333333333334
aF17.766666666666666
aF2.3333333333333335
aF1.4833333333333334
aF0.5333333333333333
aF0.15
aF16.366666666666667
aF0.15
aF0.15
aF0.36666666666666664
aF0.15
aF0.4
aF0.18333333333333332
aF2.55
aF0.8333333333333334
aF0.26666666666666666
aF0.2
aF0.45
aF0.1
aF0.16666666666666666
aF0.06666666666666667
aF0.06666666666666667
aF0.08333333333333333
aF0.18333333333333332
aaa(lp1863
g103
a(lp1864
F9.05
aF19.583333333333332
aF25.7
aF0.26666666666666666
aF0.16666666666666666
aF0.35
aF17.3
aF11.216666666666667
aF57.65
aF10.016666666666667
aF0.31666666666666665
aF0.36666666666666664
aF18.133333333333333
aF2.3666666666666667
aF1.4833333333333334
aF0.16666666666666666
aF0.13333333333333333
aF0.16666666666666666
aF0.2
aF13.366666666666667
aF2.783333333333333
aF34.31666666666667
aF0.7166666666666667
aF3.316666666666667
aF47.78333333333333
aF3.1166666666666667
aF6.783333333333333
aF0.1
aF0.15
aF0.16666666666666666
aF0.15
aF0.5666666666666667
aF0.1
aF0.08333333333333333
aF0.21666666666666667
aaa(lp1865
g105
a(lp1866
F9.2
aF20.0
aF26.85
aF0.25
aF0.15
aF0.3333333333333333
aF14.666666666666666
aF16.816666666666666
aF0.31666666666666665
aF0.38333333333333336
aF17.466666666666665
aF2.316666666666667
aF1.4833333333333334
aF0.15
aF0.25
aF0.11666666666666667
aF13.716666666666667
aF7.05
aF0.7166666666666667
aF5.55
aF7.266666666666667
aF3.2333333333333334
aF0.95
aF0.1
aF0.18333333333333332
aF0.05
aF0.23333333333333334
aF0.13333333333333333
aF0.13333333333333333
aF0.13333333333333333
aF0.18333333333333332
aaa(lp1867
g107
a(lp1868
F8.5
aF0.25
aF0.16666666666666666
aF0.3333333333333333
aF14.483333333333333
aF17.166666666666668
aF0.31666666666666665
aF0.36666666666666664
aF17.8
aF2.3333333333333335
aF1.4666666666666666
aF0.5333333333333333
aF0.13333333333333333
aF16.416666666666668
aF0.21666666666666667
aF0.16666666666666666
aF0.36666666666666664
aF0.16666666666666666
aF0.38333333333333336
aF0.18333333333333332
aF13.066666666666666
aF6.566666666666666
aF0.7166666666666667
aF5.316666666666666
aF6.7
aF3.066666666666667
aF0.8
aF0.08333333333333333
aF0.26666666666666666
aF0.43333333333333335
aF0.18333333333333332
aF0.13333333333333333
aF0.5
aF0.11666666666666667
aF0.08333333333333333
aF0.18333333333333332
aaa(lp1869
g109
a(lp1870
F8.5
aF0.25
aF0.16666666666666666
aF0.35
aF15.716666666666667
aF17.966666666666665
aF0.31666666666666665
aF0.36666666666666664
aF17.816666666666666
aF2.35
aF1.4833333333333334
aF0.5333333333333333
aF0.15
aF16.366666666666667
aF0.13333333333333333
aF0.15
aF0.36666666666666664
aF0.15
aF0.4
aF0.18333333333333332
aF13.033333333333333
aF6.633333333333334
aF0.7166666666666667
aF5.333333333333333
aF6.683333333333334
aF3.0833333333333335
aF0.8666666666666667
aF0.1
aF0.2833333333333333
aF0.48333333333333334
aF0.11666666666666667
aF0.13333333333333333
aF0.5666666666666667
aF0.1
aF0.08333333333333333
aF0.23333333333333334
aaa(lp1871
g112
a(lp1872
F57.016666666666666
aF6.1
aF25.8
aF8.2
aF0.16666666666666666
aF0.35
aF17.45
aF11.533333333333333
aF18.466666666666665
aF2.3666666666666667
aF3.183333333333333
aF1.1
aF9.483333333333333
aF0.6
aF0.3333333333333333
aF11.8
aF0.1
aF0.16666666666666666
aF0.18333333333333332
aF0.11666666666666667
aF0.5166666666666667
aF0.4666666666666667
aF0.23333333333333334
aaa(lp1873
g114
a(lp1874
F51.333333333333336
aF5.966666666666667
aF26.766666666666666
aF8.316666666666666
aF0.18333333333333332
aF0.3333333333333333
aF4.016666666666667
aF17.983333333333334
aF2.3333333333333335
aF3.05
aF1.0833333333333333
aF9.4
aF0.5333333333333333
aF0.15
aF0.18333333333333332
aF0.5833333333333334
aF0.13333333333333333
aF29.6
aF0.7166666666666667
aF8.683333333333334
aF4.766666666666667
aF11.983333333333333
aF0.9666666666666667
aF0.1
aF0.15
aF0.06666666666666667
aF0.11666666666666667
aF0.05
aF0.4166666666666667
aF1.0166666666666666
aF0.16666666666666666
aaa(lp1875
g116
a(lp1876
F48.016666666666666
aF1.6166666666666667
aF7.4
aF0.16666666666666666
aF0.35
aF3.816666666666667
aF18.25
aF2.35
aF3.15
aF1.0666666666666667
aF9.366666666666667
aF0.5333333333333333
aF0.15
aF16.35
aF0.13333333333333333
aF0.16666666666666666
aF0.31666666666666665
aF0.16666666666666666
aF0.38333333333333336
aF0.18333333333333332
aF27.966666666666665
aF0.7833333333333333
aF8.916666666666666
aF4.933333333333334
aF12.083333333333334
aF0.8
aF0.08333333333333333
aF0.26666666666666666
aF0.2
aF0.43333333333333335
aF0.23333333333333334
aF0.16666666666666666
aF0.15
aF0.5666666666666667
aF0.4666666666666667
aF0.23333333333333334
aaa(lp1877
g118
a(lp1878
F49.3
aF1.6
aF7.35
aF0.16666666666666666
aF0.3333333333333333
aF3.9833333333333334
aF18.25
aF2.3333333333333335
aF3.2
aF1.0833333333333333
aF9.316666666666666
aF0.55
aF0.15
aF16.25
aF0.16666666666666666
aF0.16666666666666666
aF0.31666666666666665
aF0.16666666666666666
aF0.38333333333333336
aF0.18333333333333332
aF27.883333333333333
aF0.7333333333333333
aF8.366666666666667
aF4.45
aF11.483333333333333
aF0.8166666666666667
aF0.1
aF0.26666666666666666
aF0.2
aF0.43333333333333335
aF0.23333333333333334
aF0.1
aF0.11666666666666667
aF0.5
aF0.18333333333333332
aaa(lp1879
g121
a(lp1880
F9.333333333333334
aF19.883333333333333
aF6.416666666666667
aF25.833333333333332
aF8.316666666666666
aF0.26666666666666666
aF0.16666666666666666
aF0.35
aF17.55
aF11.533333333333333
aF0.31666666666666665
aF0.36666666666666664
aF18.1
aF2.3833333333333333
aF1.0833333333333333
aF1.5
aF0.16666666666666666
aF0.35
aF0.2
aF0.7166666666666667
aF3.1666666666666665
aF0.1
aF0.16666666666666666
aF0.1
aF0.11666666666666667
aF0.5666666666666667
aF0.11666666666666667
aF0.16666666666666666
aaa(lp1881
g123
a(lp1882
F8.733333333333333
aF18.133333333333333
aF6.383333333333334
aF26.5
aF7.7
aF0.25
aF0.16666666666666666
aF0.35
aF18.033333333333335
aF0.31666666666666665
aF0.36666666666666664
aF17.033333333333335
aF2.35
aF1.0833333333333333
aF1.4833333333333334
aF0.16666666666666666
aF0.3333333333333333
aF2.6666666666666665
aF0.7166666666666667
aF0.95
aF2.966666666666667
aF0.8833333333333333
aF0.1
aF0.15
aF0.08333333333333333
aF0.11666666666666667
aF0.05
aF0.1
aF0.9833333333333333
aF0.15
aaa(lp1883
g125
a(lp1884
F8.65
aF7.433333333333334
aF0.26666666666666666
aF0.16666666666666666
aF0.35
aF20.083333333333332
aF0.3333333333333333
aF0.36666666666666664
aF17.833333333333332
aF2.35
aF1.0666666666666667
aF1.4833333333333334
aF0.5333333333333333
aF0.13333333333333333
aF16.483333333333334
aF0.5666666666666667
aF0.16666666666666666
aF0.31666666666666665
aF0.15
aF0.18333333333333332
aF2.5833333333333335
aF0.7333333333333333
aF0.9333333333333333
aF3.1166666666666667
aF0.8166666666666667
aF0.08333333333333333
aF0.2833333333333333
aF0.2
aF0.48333333333333334
aF0.25
aF0.18333333333333332
aF0.16666666666666666
aF0.5
aF0.08333333333333333
aF0.48333333333333334
aF0.23333333333333334
aaa(lp1885
g127
a(lp1886
F8.766666666666667
aF7.6
aF0.25
aF0.16666666666666666
aF0.35
aF17.25
aF0.31666666666666665
aF0.36666666666666664
aF18.183333333333334
aF2.4
aF1.0833333333333333
aF1.4833333333333334
aF0.5666666666666667
aF0.15
aF16.833333333333332
aF0.1
aF0.16666666666666666
aF0.31666666666666665
aF0.16666666666666666
aF0.18333333333333332
aF2.65
aF0.8333333333333334
aF1.0333333333333334
aF3.3333333333333335
aF0.8833333333333333
aF0.1
aF0.3
aF0.2
aF0.48333333333333334
aF0.23333333333333334
aF0.11666666666666667
aF0.16666666666666666
aF0.5166666666666667
aF0.11666666666666667
aF0.16666666666666666
aaa(lp1887
g130
a(lp1888
F9.15
aF25.633333333333333
aF0.18333333333333332
aF11.883333333333333
aF13.233333333333333
aF17.216666666666665
aF0.3333333333333333
aF0.36666666666666664
aF16.183333333333334
aF18.1
aF2.45
aF1.5166666666666666
aF0.31666666666666665
aF0.31666666666666665
aF0.3333333333333333
aF0.35
aF20.966666666666665
aF2.8833333333333333
aF0.5166666666666667
aF3.85
aF0.4
aF0.06666666666666667
aF0.08333333333333333
aaa(lp1889
g132
a(lp1890
F9.116666666666667
aF25.166666666666668
aF0.18333333333333332
aF11.933333333333334
aF13.516666666666667
aF0.31666666666666665
aF0.36666666666666664
aF16.366666666666667
aF18.45
aF2.283333333333333
aF1.4666666666666666
aF0.23333333333333334
aF2.65
aF0.7166666666666667
aF32.36666666666667
aF20.133333333333333
aF0.48333333333333334
aF0.06666666666666667
aF0.06666666666666667
aF0.11666666666666667
aaa(lp1891
g134
a(lp1892
F8.483333333333333
aF0.18333333333333332
aF11.683333333333334
aF12.966666666666667
aF0.31666666666666665
aF0.36666666666666664
aF15.733333333333333
aF17.8
aF2.35
aF1.4666666666666666
aF0.13333333333333333
aF0.35
aF0.2833333333333333
aF0.5833333333333334
aF0.2833333333333333
aF0.38333333333333336
aF2.566666666666667
aF0.7333333333333333
aF31.566666666666666
aF20.033333333333335
aF0.5166666666666667
aF0.8333333333333334
aF5.9
aF0.21666666666666667
aF0.38333333333333336
aF0.06666666666666667
aF0.06666666666666667
aaa(lp1893
g136
a(lp1894
F8.583333333333334
aF0.16666666666666666
aF11.816666666666666
aF13.083333333333334
aF0.31666666666666665
aF0.36666666666666664
aF15.8
aF17.816666666666666
aF2.3333333333333335
aF1.4666666666666666
aF0.13333333333333333
aF0.16666666666666666
aF0.3
aF0.5833333333333334
aF0.3333333333333333
aF0.38333333333333336
aF2.5833333333333335
aF0.7333333333333333
aF32.083333333333336
aF20.0
aF0.5166666666666667
aF0.8333333333333334
aF5.85
aF0.23333333333333334
aF0.38333333333333336
aF0.06666666666666667
aF0.08333333333333333
aaa(lp1895
g139
a(lp1896
F1.0166666666666666
aF0.25
aF0.3
aF6.516666666666667
aF6.366666666666666
aF1.1833333333333333
aF5.333333333333333
aF7.25
aF0.45
aF1.7
aF11.216666666666667
aF25.216666666666665
aF1.6333333333333333
aF9.833333333333334
aF10.3
aF18.8
aF3.6666666666666665
aF2.0
aF3.1666666666666665
aF9.6
aF3.683333333333333
aF0.5833333333333334
aF0.16666666666666666
aF4.866666666666666
aF34.5
aF12.0
aF20.683333333333334
aF0.16666666666666666
aF0.43333333333333335
aF1.7166666666666666
aF0.16666666666666666
aF0.1
aF0.06666666666666667
aF0.1
aF0.8166666666666667
aF0.11666666666666667
aaa(lp1897
g141
a(lp1898
F1.05
aF0.25
aF0.31666666666666665
aF6.45
aF6.3
aF1.1833333333333333
aF5.45
aF7.133333333333334
aF0.45
aF14.766666666666667
aF9.883333333333333
aF10.566666666666666
aF18.383333333333333
aF3.7333333333333334
aF2.0166666666666666
aF3.3333333333333335
aF9.283333333333333
aF58.6
aF14.566666666666666
aF0.9
aF0.18333333333333332
aF0.43333333333333335
aF0.15
aF0.15
aF0.06666666666666667
aF0.06666666666666667
aF0.11666666666666667
aF0.13333333333333333
aaa(lp1899
g143
a(lp1900
F1.05
aF3.9166666666666665
aF3.6666666666666665
aF0.23333333333333334
aF0.3
aF6.366666666666666
aF6.35
aF1.1666666666666667
aF5.316666666666666
aF7.266666666666667
aF0.45
aF14.533333333333333
aF9.816666666666666
aF10.25
aF18.3
aF3.566666666666667
aF2.0166666666666666
aF3.15
aF9.35
aF3.566666666666667
aF0.55
aF0.15
aF16.4
aF0.11666666666666667
aF0.15
aF0.31666666666666665
aF0.15
aF0.38333333333333336
aF0.18333333333333332
aF1.1833333333333333
aF4.65
aF8.733333333333333
aF0.8
aF2.05
aF0.16666666666666666
aF0.35
aF0.3333333333333333
aF0.16666666666666666
aF0.06666666666666667
aF0.1
aF0.7666666666666667
aF0.11666666666666667
aaa(lp1901
g145
a(lp1902
F1.05
aF4.083333333333333
aF3.8333333333333335
aF0.23333333333333334
aF0.31666666666666665
aF6.4
aF6.483333333333333
aF1.2
aF5.5
aF7.466666666666667
aF0.45
aF14.533333333333333
aF9.8
aF10.35
aF18.266666666666666
aF3.5833333333333335
aF2.0
aF3.183333333333333
aF9.366666666666667
aF3.566666666666667
aF0.6
aF0.16666666666666666
aF17.583333333333332
aF0.15
aF0.15
aF0.31666666666666665
aF0.15
aF0.4166666666666667
aF0.18333333333333332
aF1.25
aF4.8
aF8.716666666666667
aF0.8166666666666667
aF2.1
aF0.18333333333333332
aF0.35
aF0.3333333333333333
aF0.16666666666666666
aF0.06666666666666667
aF0.06666666666666667
aF0.13333333333333333
aaa(lp1903
g148
a(lp1904
F49.733333333333334
aF1.4333333333333333
aF0.9
aF0.23333333333333334
aF9.95
aF0.18333333333333332
aF11.266666666666667
aF24.4
aF1.2333333333333334
aF47.166666666666664
aF53.233333333333334
aF33.1
aF10.116666666666667
aF3.75
aF2.216666666666667
aF8.816666666666666
aF41.71666666666667
aF2.45
aF14.216666666666667
aF0.13333333333333333
aF0.15
aF0.05
aF0.11666666666666667
aF0.11666666666666667
aaa(lp1905
g151
a(lp1906
F59.983333333333334
aF2.0166666666666666
aF29.833333333333332
aF15.133333333333333
aF34.55
aF0.95
aF0.5
aF0.48333333333333334
aF5.866666666666666
aF28.066666666666666
aF2.45
aF0.18333333333333332
aF2.566666666666667
aF0.1
aF0.31666666666666665
aF0.11666666666666667
aF24.983333333333334
aF6.066666666666666
aF24.6
aF0.7166666666666667
aF0.38333333333333336
aF0.5833333333333334
aF0.48333333333333334
aF6.883333333333334
aF2.7
aF1.4833333333333334
aF10.933333333333334
aF0.25
aF0.6833333333333333
aF0.6333333333333333
aF0.18333333333333332
aF1.0333333333333334
aF1.0
aF0.15
aF0.2
aF36.7
aF0.08333333333333333
aF0.2833333333333333
aF0.31666666666666665
aF1.1
aaatp1907
Rp1908
aa(lp1909
g14
ag0
((lp1910
(lp1911
g76
a(lp1912
F5.583333333333333
aF0.11666666666666667
aF0.08333333333333333
aF0.25
aF0.31666666666666665
aF0.43333333333333335
aF0.5333333333333333
aF8.716666666666667
aF36.083333333333336
aF5.333333333333333
aF0.08333333333333333
aF0.13333333333333333
aF0.18333333333333332
aF0.06666666666666667
aF0.23333333333333334
aF14.9
aF7.15
aF0.08333333333333333
aF0.05
aF0.05
aF0.23333333333333334
aF0.11666666666666667
aF0.06666666666666667
aF0.06666666666666667
aF0.15
aF0.05
aaa(lp1913
g78
a(lp1914
F5.3
aF0.1
aF0.08333333333333333
aF0.25
aF0.31666666666666665
aF4.966666666666667
aF19.6
aF3.55
aF8.133333333333333
aF5.466666666666667
aF0.08333333333333333
aF0.13333333333333333
aF0.13333333333333333
aF0.08333333333333333
aF0.1
aF0.16666666666666666
aF0.15
aF16.633333333333333
aF7.666666666666667
aF37.5
aF0.08333333333333333
aF0.05
aF0.03333333333333333
aF0.21666666666666667
aF0.13333333333333333
aF0.05
aF0.05
aF0.16666666666666666
aF0.05
aaa(lp1915
g80
a(lp1916
F0.1
aF0.08333333333333333
aF0.25
aF0.31666666666666665
aF4.866666666666666
aF19.8
aF3.3333333333333335
aF8.216666666666667
aF5.2
aF0.15
aF14.75
aF7.166666666666667
aF40.86666666666667
aF0.08333333333333333
aF0.15
aF0.05
aaa(lp1917
g82
a(lp1918
F0.11666666666666667
aF0.08333333333333333
aF0.25
aF0.31666666666666665
aF5.0
aF19.266666666666666
aF3.45
aF8.433333333333334
aF5.4
aF0.15
aF14.833333333333334
aF7.15
aF38.93333333333333
aF0.08333333333333333
aF0.15
aF0.05
aaa(lp1919
g85
a(lp1920
F0.1
aF0.1
aF0.08333333333333333
aF0.26666666666666666
aF0.31666666666666665
aF0.43333333333333335
aF0.5166666666666667
aF8.583333333333334
aF1.7666666666666666
aF0.3333333333333333
aF0.1
aF0.23333333333333334
aF0.65
aF0.3
aF0.16666666666666666
aF0.16666666666666666
aF0.26666666666666666
aF0.31666666666666665
aF34.733333333333334
aF2.5166666666666666
aF0.08333333333333333
aF0.05
aF0.05
aF0.23333333333333334
aF0.11666666666666667
aF0.05
aF0.06666666666666667
aF0.16666666666666666
aF0.05
aaa(lp1921
g87
a(lp1922
F0.1
aF0.1
aF0.06666666666666667
aF0.23333333333333334
aF0.3333333333333333
aF0.5166666666666667
aF0.3333333333333333
aF0.5666666666666667
aF0.1
aF0.43333333333333335
aF0.31666666666666665
aF0.16666666666666666
aF0.2
aF0.26666666666666666
aF2.5
aF40.733333333333334
aF0.08333333333333333
aF0.03333333333333333
aF0.05
aF0.21666666666666667
aF0.13333333333333333
aF0.05
aF0.06666666666666667
aF0.16666666666666666
aF0.05
aaa(lp1923
g89
a(lp1924
F0.1
aF0.08333333333333333
aF0.25
aF0.31666666666666665
aF0.5166666666666667
aF0.35
aF0.15
aF0.26666666666666666
aF2.4
aF38.983333333333334
aF0.08333333333333333
aF0.13333333333333333
aF0.05
aaa(lp1925
g91
a(lp1926
F0.1
aF0.06666666666666667
aF0.25
aF0.31666666666666665
aF0.5166666666666667
aF0.36666666666666664
aF0.15
aF0.26666666666666666
aF2.5
aF39.86666666666667
aF0.08333333333333333
aF0.15
aF0.05
aaa(lp1927
g94
a(lp1928
F5.35
aF0.11666666666666667
aF0.06666666666666667
aF0.25
aF0.31666666666666665
aF0.45
aF0.5166666666666667
aF8.566666666666666
aF37.416666666666664
aF3.65
aF5.35
aF0.08333333333333333
aF0.13333333333333333
aF0.18333333333333332
aF0.06666666666666667
aF0.23333333333333334
aF0.26666666666666666
aF0.31666666666666665
aF34.733333333333334
aF2.5166666666666666
aF0.08333333333333333
aF0.05
aF0.05
aF0.23333333333333334
aF0.11666666666666667
aF0.06666666666666667
aF0.05
aF0.15
aF0.03333333333333333
aaa(lp1929
g96
a(lp1930
F5.633333333333334
aF0.1
aF0.06666666666666667
aF0.26666666666666666
aF0.3333333333333333
aF5.233333333333333
aF19.133333333333333
aF3.5166666666666666
aF8.7
aF5.25
aF0.06666666666666667
aF0.13333333333333333
aF0.13333333333333333
aF0.08333333333333333
aF0.1
aF0.16666666666666666
aF0.15
aF2.55
aF39.833333333333336
aF0.08333333333333333
aF0.05
aF0.05
aF0.21666666666666667
aF0.13333333333333333
aF0.06666666666666667
aF0.06666666666666667
aF0.16666666666666666
aF0.06666666666666667
aaa(lp1931
g98
a(lp1932
F0.11666666666666667
aF0.08333333333333333
aF0.25
aF0.3333333333333333
aF4.85
aF18.933333333333334
aF3.3666666666666667
aF8.2
aF5.2
aF0.15
aF2.4166666666666665
aF38.86666666666667
aF0.08333333333333333
aF0.15
aF0.05
aaa(lp1933
g100
a(lp1934
F0.11666666666666667
aF0.08333333333333333
aF0.25
aF0.3333333333333333
aF4.816666666666666
aF18.866666666666667
aF3.3333333333333335
aF8.183333333333334
aF5.25
aF0.15
aF2.55
aF39.86666666666667
aF0.08333333333333333
aF0.15
aF0.05
aaa(lp1935
g103
a(lp1936
F5.466666666666667
aF0.1
aF0.08333333333333333
aF0.25
aF1.3666666666666667
aF1.9833333333333334
aF0.31666666666666665
aF0.45
aF1.7833333333333334
aF36.1
aF3.5833333333333335
aF5.3
aF0.08333333333333333
aF0.11666666666666667
aF0.18333333333333332
aF0.06666666666666667
aF0.16666666666666666
aF15.15
aF7.333333333333333
aF11.683333333333334
aF0.06666666666666667
aF0.05
aF0.05
aF0.23333333333333334
aF0.06666666666666667
aF0.06666666666666667
aF0.16666666666666666
aF0.05
aaa(lp1937
g105
a(lp1938
F5.533333333333333
aF0.1
aF0.08333333333333333
aF0.25
aF1.3333333333333333
aF2.05
aF0.3333333333333333
aF19.633333333333333
aF3.5166666666666666
aF5.1
aF0.06666666666666667
aF0.13333333333333333
aF0.13333333333333333
aF0.08333333333333333
aF0.1
aF0.16666666666666666
aF0.15
aF16.633333333333333
aF2.45
aF39.55
aF0.08333333333333333
aF0.03333333333333333
aF0.05
aF0.21666666666666667
aF0.05
aF0.06666666666666667
aF0.15
aF0.03333333333333333
aaa(lp1939
g107
a(lp1940
F0.1
aF0.08333333333333333
aF0.25
aF1.3666666666666667
aF1.95
aF0.31666666666666665
aF18.95
aF3.3666666666666667
aF5.2
aF0.13333333333333333
aF14.566666666666666
aF2.25
aF38.833333333333336
aF0.08333333333333333
aF0.11666666666666667
aF0.13333333333333333
aF0.03333333333333333
aaa(lp1941
g109
a(lp1942
F0.1
aF0.08333333333333333
aF0.25
aF1.35
aF1.95
aF0.31666666666666665
aF19.733333333333334
aF3.4
aF5.283333333333333
aF0.15
aF14.85
aF2.2666666666666666
aF38.68333333333333
aF0.08333333333333333
aF0.11666666666666667
aF0.15
aF0.05
aaa(lp1943
g112
a(lp1944
F0.1
aF0.08333333333333333
aF0.25
aF1.3666666666666667
aF1.9833333333333334
aF22.866666666666667
aF0.43333333333333335
aF0.5166666666666667
aF8.65
aF1.7833333333333334
aF0.35
aF3.816666666666667
aF0.1
aF0.13333333333333333
aF0.5666666666666667
aF0.16666666666666666
aF0.16666666666666666
aF0.26666666666666666
aF0.31666666666666665
aF34.583333333333336
aF2.25
aF54.766666666666666
aF11.416666666666666
aF0.06666666666666667
aF0.05
aF0.05
aF0.23333333333333334
aF0.13333333333333333
aF0.06666666666666667
aF0.05
aF0.18333333333333332
aF0.03333333333333333
aaa(lp1945
g114
a(lp1946
F0.1
aF0.08333333333333333
aF0.25
aF1.35
aF2.05
aF23.633333333333333
aF0.45
aF0.5166666666666667
aF0.38333333333333336
aF0.5833333333333334
aF0.1
aF0.55
aF0.18333333333333332
aF0.26666666666666666
aF41.46666666666667
aF0.06666666666666667
aF0.05
aF0.05
aF0.21666666666666667
aF0.11666666666666667
aF0.06666666666666667
aF0.05
aF0.06666666666666667
aaa(lp1947
g116
a(lp1948
F0.11666666666666667
aF0.08333333333333333
aF0.25
aF1.35
aF1.95
aF22.65
aF0.45
aF0.5166666666666667
aF0.35
aF0.13333333333333333
aF0.26666666666666666
aF40.416666666666664
aF0.08333333333333333
aF0.18333333333333332
aF0.05
aaa(lp1949
g118
a(lp1950
F0.1
aF0.06666666666666667
aF0.25
aF1.3333333333333333
aF1.95
aF22.216666666666665
aF0.48333333333333334
aF0.5666666666666667
aF0.36666666666666664
aF0.15
aF0.2833333333333333
aF40.4
aF0.08333333333333333
aF0.18333333333333332
aF0.03333333333333333
aF0.55
aaa(lp1951
g121
a(lp1952
F0.1
aF0.08333333333333333
aF0.25
aF1.35
aF1.9666666666666666
aF0.3333333333333333
aF0.43333333333333335
aF0.5333333333333333
aF8.75
aF1.8166666666666667
aF0.35
aF3.6333333333333333
aF0.08333333333333333
aF0.13333333333333333
aF0.4666666666666667
aF0.06666666666666667
aF0.21666666666666667
aF0.08333333333333333
aF0.26666666666666666
aF0.31666666666666665
aF34.61666666666667
aF7.566666666666666
aF11.45
aF0.08333333333333333
aF0.05
aF0.05
aF0.21666666666666667
aF0.11666666666666667
aF0.06666666666666667
aF0.06666666666666667
aF0.03333333333333333
aF0.55
aaa(lp1953
g123
a(lp1954
F0.1
aF0.08333333333333333
aF0.25
aF1.3833333333333333
aF2.033333333333333
aF0.31666666666666665
aF0.5166666666666667
aF19.483333333333334
aF0.08333333333333333
aF0.15
aF0.4666666666666667
aF0.06666666666666667
aF0.23333333333333334
aF0.1
aF1.95
aF2.3666666666666667
aF37.733333333333334
aF0.06666666666666667
aF0.05
aF0.05
aF0.21666666666666667
aF0.13333333333333333
aF0.06666666666666667
aF0.06666666666666667
aF0.08333333333333333
aaa(lp1955
g125
a(lp1956
F0.1
aF0.08333333333333333
aF0.25
aF1.35
aF1.95
aF0.31666666666666665
aF0.5333333333333333
aF19.616666666666667
aF0.15
aF0.1
aF2.283333333333333
aF39.016666666666666
aF0.08333333333333333
aF0.05
aaa(lp1957
g127
a(lp1958
F0.1
aF0.08333333333333333
aF0.25
aF1.3666666666666667
aF2.0
aF0.3333333333333333
aF0.5166666666666667
aF18.983333333333334
aF0.15
aF0.1
aF2.5
aF42.55
aF0.08333333333333333
aF0.05
aF0.5666666666666667
aaa(lp1959
g130
a(lp1960
F5.7
aF5.416666666666667
aF1.1166666666666667
aF1.3666666666666667
aF1.9666666666666666
aF22.816666666666666
aF2.2
aF1.8166666666666667
aF37.11666666666667
aF4.7
aF5.516666666666667
aF0.08333333333333333
aF0.2833333333333333
aF0.4666666666666667
aF1.2333333333333334
aF0.25
aF0.1
aF0.26666666666666666
aF0.31666666666666665
aF29.5
aF29.0
aF2.4833333333333334
aF0.5833333333333334
aF25.35
aF0.05
aF0.9833333333333333
aF0.13333333333333333
aF0.1
aF0.15
aF0.06666666666666667
aF0.38333333333333336
aF0.08333333333333333
aF0.1
aaa(lp1961
g132
a(lp1962
F5.516666666666667
aF5.45
aF1.0833333333333333
aF1.2833333333333334
aF1.9333333333333333
aF22.3
aF36.55
aF1.7833333333333334
aF3.3333333333333335
aF5.3
aF0.21666666666666667
aF0.11666666666666667
aF0.06666666666666667
aF0.26666666666666666
aF4.2
aF0.15
aF0.55
aF2.35
aF0.9333333333333333
aF0.05
aF0.06666666666666667
aF10.783333333333333
aF0.13333333333333333
aF0.11666666666666667
aF2.816666666666667
aF0.15
aF0.08333333333333333
aF0.05
aF0.1
aF0.08333333333333333
aF0.13333333333333333
aaa(lp1963
g134
a(lp1964
F1.0833333333333333
aF1.35
aF1.9333333333333333
aF22.383333333333333
aF34.916666666666664
aF1.7666666666666666
aF3.3333333333333335
aF5.2
aF0.13333333333333333
aF0.1
aF0.08333333333333333
aF2.433333333333333
aF0.9166666666666666
aF0.06666666666666667
aF0.11666666666666667
aF0.1
aF0.06666666666666667
aF0.48333333333333334
aF0.08333333333333333
aF0.08333333333333333
aaa(lp1965
g136
a(lp1966
F1.1333333333333333
aF1.3666666666666667
aF1.9833333333333334
aF22.683333333333334
aF36.38333333333333
aF1.8
aF3.35
aF5.3
aF0.13333333333333333
aF0.1
aF0.1
aF2.4
aF1.0166666666666666
aF0.06666666666666667
aF0.15
aF0.1
aF0.05
aF0.15
aF0.08333333333333333
aF0.1
aaa(lp1967
g139
a(lp1968
F1.6333333333333333
aF3.716666666666667
aF5.633333333333334
aF0.5166666666666667
aF8.583333333333334
aF6.266666666666667
aF0.1
aF0.13333333333333333
aF0.06666666666666667
aF0.18333333333333332
aF0.15
aF0.16666666666666666
aF0.8
aF35.0
aF55.93333333333333
aF2.5166666666666666
aF0.31666666666666665
aF0.05
aF0.05
aF0.35
aF0.06666666666666667
aF0.1
aaa(lp1969
g141
a(lp1970
F1.6833333333333333
aF3.5833333333333335
aF5.033333333333333
aF0.5
aF6.216666666666667
aF31.433333333333334
aF0.13333333333333333
aF0.06666666666666667
aF0.21666666666666667
aF0.65
aF0.13333333333333333
aF0.06666666666666667
aF0.15
aF33.93333333333333
aF7.766666666666667
aF27.483333333333334
aF0.18333333333333332
aF0.03333333333333333
aF0.05
aF0.36666666666666664
aF0.06666666666666667
aF0.16666666666666666
aF0.08333333333333333
aaa(lp1971
g143
a(lp1972
F0.5166666666666667
aF6.283333333333333
aF0.15
aF2.433333333333333
aF0.25
aF0.08333333333333333
aaa(lp1973
g145
a(lp1974
F0.5333333333333333
aF6.266666666666667
aF0.15
aF2.5
aF0.26666666666666666
aF57.93333333333333
aF0.1
aaa(lp1975
g148
a(lp1976
F1.7166666666666666
aF3.6
aF6.566666666666666
aF4.85
aF8.25
aF0.43333333333333335
aF57.36666666666667
aF20.1
aF10.116666666666667
aF19.133333333333333
aF2.3
aF32.2
aF0.06666666666666667
aF0.05
aF0.08333333333333333
aF0.6666666666666666
aF0.15
aF0.13333333333333333
aF0.11666666666666667
aF33.4
aF8.283333333333333
aF27.016666666666666
aF19.566666666666666
aF0.016666666666666666
aF0.016666666666666666
aF0.03333333333333333
aF0.016666666666666666
aF0.1
aF0.11666666666666667
aF0.15
aF0.03333333333333333
aF0.5166666666666667
aF0.05
aF0.13333333333333333
aaa(lp1977
g151
a(lp1978
aatp1979
Rp1980
aa(lp1981
g19
ag0
((lp1982
(lp1983
g76
a(lp1984
F60.0
aF60.0
aF60.0
aF60.0
aF60.0
aF60.0
aF60.0
aF60.0
aF60.0
aF60.0
aF60.0
aF60.0
aF60.0
aF60.0
aF60.0
aF60.0
aF60.0
aF60.0
aF60.0
aF60.016666666666666
aF60.0
aF60.0
aF60.0
aF60.0
aF60.0
aF60.0
aF60.0
aF60.0
aF60.0
aF60.0
aF60.0
aF60.0
aF60.0
aF60.0
aF60.0
aF60.0
aaa(lp1985
g78
a(lp1986
F60.0
aF60.0
aF60.0
aF60.0
aF60.0
aF60.0
aF60.0
aF60.0
aF60.0
aF60.0
aF60.0
aF60.0
aF60.0
aF60.0
aF60.0
aF60.0
aF60.0
aF60.0
aF60.0
aF60.0
aF60.0
aF60.0
aF60.0
aF60.0
aF60.0
aF60.0
aF60.0
aF60.0
aF60.0
aF60.0
aF60.0
aF60.0
aF60.0
aF60.0
aF60.0
aF60.0
aF60.0
aF60.0
aaa(lp1987
g80
a(lp1988
F60.0
aF60.0
aF60.0
aF60.0
aF60.0
aF60.0
aF60.0
aF60.0
aF60.0
aF60.0
aF60.0
aF60.0
aF60.0
aF60.0
aF60.0
aF60.0
aF60.0
aF60.0
aF60.0
aF60.0
aF60.0
aF60.0
aF60.0
aF60.0
aF60.0
aF60.0
aF60.0
aF60.0
aF60.0
aF60.0
aF60.0
aF60.0
aF60.0
aF60.0
aF60.0
aF60.0
aF60.0
aF60.0
aF60.0
aF60.0
aF60.0
aF60.0
aF60.0
aF60.0
aF60.0
aaa(lp1989
g82
a(lp1990
F60.0
aF60.0
aF60.0
aF60.0
aF60.0
aF60.0
aF60.0
aF60.0
aF60.0
aF60.0
aF60.0
aF60.0
aF60.0
aF60.0
aF60.0
aF60.0
aF60.0
aF60.0
aF60.0
aF60.0
aF60.0
aF60.0
aF60.0
aF60.0
aF60.0
aF60.0
aF60.0
aF60.0
aF60.0
aF60.0
aF60.0
aF60.0
aF60.0
aF60.0
aF60.0
aF60.0
aF60.0
aF60.0
aF60.0
aF60.0
aF60.0
aF60.0
aF60.0
aF60.0
aF60.0
aaa(lp1991
g85
a(lp1992
F60.0
aF60.0
aF60.0
aF60.0
aF60.0
aF60.0
aF60.0
aF60.0
aF60.0
aF60.0
aF60.0
aF60.0
aF60.0
aF60.0
aF60.0
aF60.0
aF60.0
aF60.0
aF60.0
aF60.0
aF60.0
aF60.0
aF60.0
aF60.0
aF60.0
aF60.0
aF60.0
aF60.0
aF60.0
aF60.0
aF60.0
aF60.0
aF60.0
aF60.0
aF60.0
aF60.0
aF60.0
aF60.0
aF60.0
aF60.0
aF60.0
aF60.0
aaa(lp1993
g87
a(lp1994
F60.0
aF60.0
aF60.0
aF60.0
aF60.0
aF60.0
aF60.0
aF60.0
aF60.0
aF60.0
aF60.0
aF60.0
aF60.0
aF60.0
aF60.0
aF60.0
aF60.0
aF60.0
aF60.0
aF60.0
aF60.0
aF60.0
aF60.0
aF60.0
aF60.0
aF60.0
aF60.0
aF60.0
aF60.0
aF60.0
aF60.0
aF60.0
aF60.0
aF60.0
aF60.0
aF60.0
aF60.0
aF60.0
aF60.0
aF60.0
aF60.0
aF60.0
aF60.0
aaa(lp1995
g89
a(lp1996
F60.0
aF60.0
aF60.0
aF60.0
aF60.0
aF60.0
aF60.0
aF60.0
aF60.0
aF60.0
aF60.0
aF60.0
aF60.0
aF60.0
aF60.0
aF60.0
aF60.0
aF60.0
aF60.0
aF60.0
aF60.0
aF60.0
aF60.0
aF60.0
aF60.0
aF60.0
aF60.0
aF60.0
aF60.0
aF60.0
aF60.0
aF60.0
aF60.0
aF60.0
aF60.0
aF60.0
aF60.0
aF60.0
aF60.0
aF60.0
aF60.0
aF60.0
aF60.0
aF60.0
aF60.0
aF60.0
aF60.0
aF60.0
aF60.0
aF60.0
aaa(lp1997
g91
a(lp1998
F60.0
aF60.0
aF60.0
aF60.0
aF60.0
aF60.0
aF60.0
aF60.0
aF60.0
aF60.0
aF60.0
aF60.0
aF60.0
aF60.0
aF60.0
aF60.0
aF60.0
aF60.0
aF60.0
aF60.0
aF60.0
aF60.0
aF60.0
aF60.0
aF60.0
aF60.0
aF60.0
aF60.0
aF60.0
aF60.0
aF60.0
aF60.0
aF60.0
aF60.0
aF60.0
aF60.0
aF60.0
aF60.0
aF60.0
aF60.0
aF60.0
aF60.0
aF60.0
aF60.0
aF60.0
aF60.0
aF60.0
aF60.0
aF60.0
aF60.0
aaa(lp1999
g94
a(lp2000
F60.0
aF60.0
aF60.0
aF60.0
aF60.0
aF60.0
aF60.0
aF60.0
aF60.0
aF60.0
aF60.0
aF60.0
aF60.0
aF60.0
aF60.0
aF60.0
aF60.0
aF60.0
aF60.0
aF60.0
aF60.0
aF60.0
aF60.0
aF60.0
aF60.0
aF60.0
aF60.0
aF60.0
aF60.0
aF60.0
aF60.0
aF60.0
aF60.0
aF60.0
aF60.0
aF60.0
aF60.0
aF60.0
aF60.0
aaa(lp2001
g96
a(lp2002
F60.0
aF60.0
aF60.0
aF60.0
aF60.0
aF60.0
aF60.0
aF60.0
aF60.0
aF60.0
aF60.0
aF60.0
aF60.0
aF60.0
aF60.0
aF60.0
aF60.0
aF60.0
aF60.0
aF60.0
aF60.0
aF60.0
aF60.0
aF60.0
aF60.0
aF60.0
aF60.0
aF60.0
aF60.0
aF60.0
aF60.0
aF60.0
aF60.0
aF60.0
aF60.0
aF60.0
aF60.0
aF60.0
aF60.0
aF60.0
aF60.0
aF60.0
aF60.0
aF60.0
aaa(lp2003
g98
a(lp2004
F60.0
aF60.0
aF60.0
aF60.0
aF60.0
aF60.0
aF60.0
aF60.0
aF60.0
aF60.0
aF60.0
aF60.0
aF60.0
aF60.0
aF60.0
aF60.0
aF60.0
aF60.0
aF60.0
aF60.0
aF60.0
aF60.0
aF60.0
aF60.0
aF60.0
aF60.0
aF60.0
aF60.0
aF60.016666666666666
aF60.0
aF60.0
aF60.0
aF60.0
aF60.0
aF60.0
aF60.0
aF60.0
aF60.0
aF60.0
aF60.0
aF60.0
aF60.0
aF60.0
aF60.0
aF60.0
aF60.0
aF60.0
aF60.0
aF60.0
aF60.0
aF60.0
aaa(lp2005
g100
a(lp2006
F60.0
aF60.0
aF60.0
aF60.0
aF60.0
aF60.0
aF60.0
aF60.0
aF60.0
aF60.0
aF60.0
aF60.0
aF60.0
aF60.0
aF60.0
aF60.0
aF60.0
aF60.0
aF60.0
aF60.0
aF60.0
aF60.0
aF60.0
aF60.0
aF60.0
aF60.0
aF60.0
aF60.0
aF60.0
aF60.0
aF60.0
aF60.0
aF60.0
aF60.0
aF60.0
aF60.0
aF60.0
aF60.0
aF60.0
aF60.0
aF60.0
aF60.0
aF60.0
aF60.0
aF60.0
aF60.0
aF60.0
aF60.0
aF60.0
aF60.0
aF60.0
aaa(lp2007
g103
a(lp2008
F60.0
aF60.0
aF60.0
aF60.0
aF60.0
aF60.0
aF60.0
aF60.0
aF60.0
aF60.0
aF60.0
aF60.0
aF60.0
aF60.0
aF60.0
aF60.0
aF60.0
aF60.0
aF60.0
aF60.0
aF60.0
aF60.0
aF60.0
aF60.0
aF60.0
aF60.0
aF60.0
aF60.0
aF60.0
aF60.0
aF60.0
aF60.0
aF60.0
aF60.0
aF60.0
aF60.0
aF60.0
aaa(lp2009
g105
a(lp2010
F60.0
aF60.0
aF60.0
aF60.0
aF60.0
aF60.0
aF60.0
aF60.0
aF60.0
aF60.0
aF60.0
aF60.0
aF60.0
aF60.0
aF60.0
aF60.0
aF60.0
aF60.0
aF60.0
aF60.0
aF60.0
aF60.0
aF60.0
aF60.0
aF60.0
aF60.0
aF60.0
aF60.0
aF60.0
aF60.0
aF60.0
aF60.0
aF60.0
aF60.0
aF60.0
aF60.0
aF60.0
aF60.0
aF60.0
aF60.0
aF60.0
aaa(lp2011
g107
a(lp2012
F60.0
aF60.0
aF60.0
aF60.0
aF60.0
aF60.0
aF60.0
aF60.0
aF60.0
aF60.0
aF60.0
aF60.0
aF60.0
aF60.0
aF60.0
aF60.0
aF60.0
aF60.0
aF60.0
aF60.0
aF60.0
aF60.0
aF60.0
aF60.0
aF60.0
aF60.0
aF60.0
aF60.0
aF60.0
aF60.0
aF60.0
aF60.0
aF60.0
aF60.0
aF60.0
aF60.0
aF60.0
aF60.0
aF60.0
aF60.0
aF60.0
aF60.0
aF60.0
aF60.0
aF60.0
aF60.0
aF60.0
aaa(lp2013
g109
a(lp2014
F60.0
aF60.0
aF60.0
aF60.0
aF60.0
aF60.0
aF60.0
aF60.0
aF60.0
aF60.0
aF60.0
aF60.0
aF60.0
aF60.0
aF60.0
aF60.0
aF60.0
aF60.0
aF60.0
aF60.0
aF60.0
aF60.0
aF60.0
aF60.0
aF60.0
aF60.0
aF60.0
aF60.0
aF60.0
aF60.0
aF60.0
aF60.0
aF60.0
aF60.0
aF60.0
aF60.0
aF60.0
aF60.0
aF60.0
aF60.0
aF60.0
aF60.0
aF60.0
aF60.0
aF60.0
aF60.0
aF60.0
aaa(lp2015
g112
a(lp2016
F60.0
aF60.0
aF60.0
aF60.016666666666666
aF60.0
aF60.0
aF60.0
aF60.0
aF60.0
aF60.0
aF60.0
aF60.0
aF60.0
aF60.0
aF60.0
aF60.0
aF60.0
aF60.0
aF60.0
aF60.0
aF60.0
aF60.0
aF60.0
aF60.0
aF60.0
aF60.0
aF60.0
aF60.0
aF60.0
aF60.0
aF60.0
aF60.0
aF60.0
aF60.0
aF60.0
aF60.0
aF60.0
aF60.0
aF60.0
aF60.0
aF60.0
aF60.0
aF60.0
aF60.0
aF60.0
aaa(lp2017
g114
a(lp2018
F60.0
aF60.0
aF60.0
aF60.0
aF60.0
aF60.0
aF60.0
aF60.0
aF60.0
aF60.0
aF60.0
aF60.0
aF60.0
aF60.0
aF60.0
aF60.0
aF60.0
aF60.0
aF60.0
aF60.0
aF60.0
aF60.0
aF60.0
aF60.0
aF60.0
aF60.0
aF60.0
aF60.0
aF60.0
aF60.0
aF60.0
aF60.0
aF60.0
aF60.0
aF60.0
aF60.0
aF60.0
aF60.0
aF60.0
aF60.0
aF60.0
aF60.0
aF60.0
aF60.0
aF60.0
aF60.0
aaa(lp2019
g116
a(lp2020
F60.0
aF60.0
aF60.0
aF60.0
aF60.0
aF60.0
aF60.0
aF60.0
aF60.0
aF60.0
aF60.0
aF60.0
aF60.0
aF60.0
aF60.0
aF60.0
aF60.0
aF60.0
aF60.0
aF60.0
aF60.0
aF60.0
aF60.0
aF60.0
aF60.0
aF60.0
aF60.0
aF60.0
aF60.0
aF60.0
aF60.0
aF60.0
aF60.0
aF60.0
aF60.0
aF60.0
aF60.0
aF60.0
aF60.0
aF60.0
aF60.0
aF60.0
aF60.0
aF60.0
aF60.0
aF60.0
aF60.0
aF60.0
aF60.0
aaa(lp2021
g118
a(lp2022
F60.0
aF60.0
aF60.0
aF60.0
aF60.0
aF60.0
aF60.0
aF60.0
aF60.0
aF60.0
aF60.0
aF60.0
aF60.0
aF60.0
aF60.0
aF60.0
aF60.0
aF60.0
aF60.0
aF60.0
aF60.0
aF60.0
aF60.0
aF60.0
aF60.0
aF60.0
aF60.0
aF60.0
aF60.0
aF60.0
aF60.0
aF60.0
aF60.0
aF60.0
aF60.0
aF60.0
aF60.0
aF60.0
aF60.0
aF60.0
aF60.0
aF60.0
aF60.0
aF60.0
aF60.0
aF60.0
aF60.0
aF60.0
aF60.0
aaa(lp2023
g121
a(lp2024
F60.0
aF60.0
aF60.0
aF60.0
aF60.0
aF60.0
aF60.0
aF60.0
aF60.0
aF60.0
aF60.0
aF60.0
aF60.0
aF60.0
aF60.0
aF60.0
aF60.0
aF60.0
aF60.0
aF60.0
aF60.0
aF60.0
aF60.0
aF60.0
aF60.0
aF60.0
aF60.0
aF60.0
aF60.0
aF60.0
aF60.0
aF60.0
aF60.0
aF60.0
aF60.0
aF60.0
aF60.0
aF60.0
aF60.0
aF60.0
aaa(lp2025
g123
a(lp2026
F60.0
aF60.0
aF60.0
aF60.0
aF60.0
aF60.0
aF60.0
aF60.0
aF60.0
aF60.0
aF60.0
aF60.0
aF60.0
aF60.0
aF60.0
aF60.0
aF60.0
aF60.0
aF60.0
aF60.0
aF60.0
aF60.0
aF60.0
aF60.0
aF60.0
aF60.0
aF60.0
aF60.0
aF60.0
aF60.0
aF60.0
aF60.0
aF60.0
aF60.0
aF60.0
aF60.0
aF60.0
aF60.0
aF60.0
aF60.0
aF60.0
aF60.0
aF60.0
aF60.0
aF60.0
aaa(lp2027
g125
a(lp2028
F60.0
aF60.0
aF60.0
aF60.0
aF60.0
aF60.0
aF60.0
aF60.0
aF60.0
aF60.0
aF60.0
aF60.0
aF60.0
aF60.0
aF60.0
aF60.0
aF60.0
aF60.0
aF60.0
aF60.0
aF60.0
aF60.0
aF60.0
aF60.0
aF60.0
aF60.0
aF60.0
aF60.0
aF60.0
aF60.0
aF60.0
aF60.0
aF60.0
aF60.0
aF60.0
aF60.0
aF60.0
aF60.0
aF60.0
aF60.0
aF60.0
aF60.0
aF60.0
aF60.0
aF60.0
aF60.0
aF60.0
aF60.0
aF60.0
aF60.0
aaa(lp2029
g127
a(lp2030
F60.0
aF60.0
aF60.0
aF60.0
aF60.0
aF60.0
aF60.0
aF60.0
aF60.0
aF60.0
aF60.0
aF60.0
aF60.0
aF60.0
aF60.0
aF60.0
aF60.0
aF60.0
aF60.0
aF60.0
aF60.0
aF60.0
aF60.0
aF60.0
aF60.0
aF60.0
aF60.0
aF60.0
aF60.0
aF60.0
aF60.0
aF60.0
aF60.0
aF60.0
aF60.0
aF60.0
aF60.0
aF60.0
aF60.0
aF60.0
aF60.0
aF60.0
aF60.0
aF60.0
aF60.0
aF60.0
aF60.0
aF60.0
aF60.0
aF60.0
aaa(lp2031
g130
a(lp2032
F60.0
aF60.0
aF60.0
aF60.0
aF60.0
aF60.0
aF60.0
aF60.0
aF60.0
aF60.0
aF60.0
aF60.0
aF60.0
aF60.0
aF60.0
aF60.0
aF60.0
aF60.0
aF60.0
aF60.0
aF60.0
aF60.0
aF60.0
aF60.0
aF60.0
aF60.0
aF60.0
aF60.0
aF60.0
aF60.0
aF60.0
aF60.0
aF60.0
aF60.0
aF60.0
aF60.0
aF60.0
aF60.0
aF60.0
aF60.0
aF60.0
aF60.0
aF60.0
aF60.0
aaa(lp2033
g132
a(lp2034
F60.0
aF60.0
aF60.0
aF60.0
aF60.0
aF60.0
aF60.0
aF60.0
aF60.0
aF60.0
aF60.0
aF60.0
aF60.0
aF60.0
aF60.0
aF60.0
aF60.0
aF60.0
aF60.0
aF60.0
aF60.0
aF60.0
aF60.0
aF60.0
aF60.0
aF60.0
aF60.0
aF60.0
aF60.0
aF60.0
aF60.0
aF60.0
aF60.0
aF60.0
aF60.0
aF60.0
aF60.0
aF60.0
aF60.0
aF60.0
aF60.0
aF60.0
aF60.0
aF60.0
aF60.0
aF60.0
aF60.0
aF60.0
aF60.0
aaa(lp2035
g134
a(lp2036
F60.0
aF60.0
aF60.0
aF60.0
aF60.0
aF60.0
aF60.0
aF60.0
aF60.0
aF60.0
aF60.0
aF60.0
aF60.0
aF60.0
aF60.0
aF60.0
aF60.0
aF60.0
aF60.0
aF60.0
aF60.0
aF60.0
aF60.0
aF60.0
aF60.0
aF60.0
aF60.0
aF60.0
aF60.0
aF60.0
aF60.0
aF60.0
aF60.0
aF60.0
aF60.0
aF60.0
aF60.0
aF60.0
aF60.0
aF60.0
aF60.0
aF60.0
aF60.0
aF60.0
aF60.0
aF60.0
aF60.0
aF60.0
aF60.0
aF60.0
aF60.0
aF60.0
aF60.0
aaa(lp2037
g136
a(lp2038
F60.0
aF60.0
aF60.0
aF60.0
aF60.0
aF60.0
aF60.0
aF60.0
aF60.0
aF60.0
aF60.0
aF60.0
aF60.0
aF60.0
aF60.0
aF60.0
aF60.0
aF60.0
aF60.0
aF60.0
aF60.0
aF60.0
aF60.0
aF60.0
aF60.0
aF60.0
aF60.0
aF60.0
aF60.0
aF60.0
aF60.0
aF60.0
aF60.0
aF60.0
aF60.0
aF60.0
aF60.0
aF60.0
aF60.0
aF60.0
aF60.0
aF60.0
aF60.0
aF60.0
aF60.0
aF60.0
aF60.0
aF60.0
aF60.0
aF60.0
aF60.0
aF60.0
aF60.0
aaa(lp2039
g139
a(lp2040
F60.0
aF60.0
aF60.0
aF60.0
aF60.0
aF60.0
aF60.0
aF60.0
aF60.0
aF60.0
aF60.0
aF60.0
aF60.0
aF60.0
aF60.0
aF60.0
aF60.0
aF60.0
aF60.0
aF60.0
aF60.0
aF60.0
aF60.0
aF60.0
aF60.0
aF60.0
aF60.0
aF60.0
aF60.0
aF60.0
aF60.0
aF60.0
aF60.0
aF60.0
aF60.0
aF60.0
aF60.0
aF60.0
aF60.0
aF60.0
aF60.0
aF60.0
aaa(lp2041
g141
a(lp2042
F60.0
aF60.0
aF60.0
aF60.0
aF60.0
aF60.0
aF60.0
aF60.0
aF60.0
aF60.0
aF60.0
aF60.0
aF60.0
aF60.0
aF60.0
aF60.0
aF60.0
aF60.0
aF60.0
aF60.0
aF60.0
aF60.0
aF60.0
aF60.0
aF60.0
aF60.0
aF60.0
aF60.0
aF60.0
aF60.0
aF60.0
aF60.0
aF60.0
aF60.0
aF60.0
aF60.0
aF60.0
aF60.0
aF60.0
aF60.0
aF60.0
aF60.0
aF60.0
aF60.0
aF60.0
aF60.0
aF60.0
aF60.0
aF60.0
aaa(lp2043
g143
a(lp2044
F60.0
aF60.0
aF60.0
aF60.0
aF60.0
aF60.0
aF60.0
aF60.0
aF60.0
aF60.0
aF60.0
aF60.0
aF60.0
aF60.0
aF60.0
aF60.0
aF60.0
aF60.0
aF60.0
aF60.0
aF60.0
aF60.0
aF60.0
aF60.0
aF60.0
aF60.0
aF60.0
aF60.0
aF60.0
aF60.0
aF60.0
aF60.0
aF60.0
aF60.0
aF60.016666666666666
aF60.0
aF60.0
aF60.0
aF60.0
aF60.0
aF60.0
aF60.0
aF60.0
aF60.0
aF60.0
aF60.0
aF60.0
aF60.0
aF60.0
aF60.0
aF60.0
aF60.0
aaa(lp2045
g145
a(lp2046
F60.0
aF60.0
aF60.0
aF60.0
aF60.0
aF60.0
aF60.0
aF60.0
aF60.0
aF60.0
aF60.0
aF60.0
aF60.0
aF60.0
aF60.0
aF60.0
aF60.0
aF60.0
aF60.0
aF60.0
aF60.0
aF60.0
aF60.0
aF60.0
aF60.0
aF60.0
aF60.0
aF60.0
aF60.0
aF60.0
aF60.0
aF60.0
aF60.0
aF60.0
aF60.0
aF60.0
aF60.0
aF60.0
aF60.0
aF60.0
aF60.0
aF60.0
aF60.0
aF60.0
aF60.0
aF60.0
aF60.0
aF60.0
aF60.0
aF60.0
aF60.0
aF60.0
aaa(lp2047
g148
a(lp2048
F60.0
aF60.0
aF60.0
aF60.0
aF60.0
aF60.0
aF60.0
aF60.0
aF60.0
aF60.0
aF60.0
aF60.0
aF60.0
aF60.0
aF60.0
aF60.0
aF60.0
aF60.0
aF60.0
aF60.0
aF60.0
aF60.0
aF60.0
aF60.0
aF60.0
aF60.0
aF60.0
aF60.0
aF60.0
aF60.0
aF60.0
aF60.0
aF60.0
aF60.0
aF60.0
aF60.0
aF60.0
aF60.0
aF60.0
aF60.0
aF60.0
aF60.0
aaa(lp2049
g151
a(lp2050
F60.0
aF60.0
aF60.0
aF60.0
aF60.0
aF60.0
aF60.0
aF60.0
aF60.0
aF60.0
aF60.0
aF60.0
aF60.0
aF60.0
aF60.0
aF60.0
aF60.0
aF60.0
aF60.0
aF60.0
aF60.0
aF60.0
aF60.0
aF60.0
aF60.0
aF60.0
aF60.0
aF60.0
aF60.0
aF60.0
aF60.0
aF60.0
aF60.0
aF60.0
aF60.0
aF60.0
aF60.0
aF60.0
aF60.0
aF60.0
aF60.0
aF60.0
aF60.0
aF60.0
aF60.0
aF60.0
aF60.0
aF60.0
aF60.0
aF60.0
aF60.0
aF60.0
aF60.0
aF60.0
aF60.0
aF60.0
aF60.0
aF60.0
aF60.0
aF60.0
aaatp2051
Rp2052
aa(lp2053
g24
ag0
((lp2054
(lp2055
g76
a(lp2056
aa(lp2057
g78
a(lp2058
aa(lp2059
g80
a(lp2060
aa(lp2061
g82
a(lp2062
aa(lp2063
g85
a(lp2064
aa(lp2065
g87
a(lp2066
aa(lp2067
g89
a(lp2068
aa(lp2069
g91
a(lp2070
aa(lp2071
g94
a(lp2072
aa(lp2073
g96
a(lp2074
aa(lp2075
g98
a(lp2076
aa(lp2077
g100
a(lp2078
aa(lp2079
g103
a(lp2080
aa(lp2081
g105
a(lp2082
aa(lp2083
g107
a(lp2084
aa(lp2085
g109
a(lp2086
aa(lp2087
g112
a(lp2088
aa(lp2089
g114
a(lp2090
aa(lp2091
g116
a(lp2092
aa(lp2093
g118
a(lp2094
aa(lp2095
g121
a(lp2096
aa(lp2097
g123
a(lp2098
aa(lp2099
g125
a(lp2100
aa(lp2101
g127
a(lp2102
aa(lp2103
g130
a(lp2104
aa(lp2105
g132
a(lp2106
aa(lp2107
g134
a(lp2108
aa(lp2109
g136
a(lp2110
aa(lp2111
g139
a(lp2112
aa(lp2113
g141
a(lp2114
aa(lp2115
g143
a(lp2116
aa(lp2117
g145
a(lp2118
aa(lp2119
g148
a(lp2120
aa(lp2121
g151
a(lp2122
aatp2123
Rp2124
aatp2125
Rp2126
aa(lp2127
g9
ag0
((lp2128
tp2129
Rp2130
aa(lp2131
g14
ag0
((lp2132
tp2133
Rp2134
aa(lp2135
g19
ag0
((lp2136
tp2137
Rp2138
aa(lp2139
g24
ag0
((lp2140
tp2141
Rp2142
aatp2143
Rp2144
aa(lp2145
S'Memory Usage (GB)'
p2146
ag0
((lp2147
(lp2148
g6
ag0
((lp2149
(lp2150
g9
ag0
((lp2151
(lp2152
g76
aF4.4784051995561445
aa(lp2153
g78
aF3.615478400030161
aa(lp2154
g80
aF2.9496837518132693
aa(lp2155
g82
aF2.9500169998529078
aa(lp2156
g85
aF4.107860696727524
aa(lp2157
g87
aF4.464016556741115
aa(lp2158
g89
aF3.9926106220991757
aa(lp2159
g91
aF3.992093472864043
aa(lp2160
g94
aF3.6473976373690715
aa(lp2161
g96
aF3.4726328168641536
aa(lp2162
g98
aF2.7227411831128676
aa(lp2163
g100
aF2.707610186407832
aa(lp2164
g103
aF4.406931631905263
aa(lp2165
g105
aF2.909552297285487
aa(lp2166
g107
aF2.365032090083133
aa(lp2167
g109
aF2.3660932117046247
aa(lp2168
g112
aF5.1658799544582
aa(lp2169
g114
aF3.9332079733555805
aa(lp2170
g116
aF3.135493702358433
aa(lp2171
g118
aF3.215074920654917
aa(lp2172
g121
aF2.9210195541401105
aa(lp2173
g123
aF2.3069498697907136
aa(lp2174
g125
aF1.7159570058177862
aa(lp2175
g127
aF1.7508694240021572
aa(lp2176
g130
aF6.166852536407056
aa(lp2177
g132
aF6.94963836669574
aa(lp2178
g134
aF4.682869098801326
aa(lp2179
g136
aF4.6817997120031745
aa(lp2180
g139
aF4.155611779952831
aa(lp2181
g141
aF4.750230107988018
aa(lp2182
g143
aF3.2108634767073068
aa(lp2183
g145
aF3.2842751479735144
aa(lp2184
g148
aF6.87365818023975
aa(lp2185
g151
aF7.871723365779156
aatp2186
Rp2187
aa(lp2188
g14
ag0
((lp2189
(lp2190
g76
aF1.4301346998953155
aa(lp2191
g78
aF1.6684149380367759
aa(lp2192
g80
aF2.9458427429162874
aa(lp2193
g82
aF2.9433112144449187
aa(lp2194
g85
aF1.3841046300418138
aa(lp2195
g87
aF0.723811950682956
aa(lp2196
g89
aF1.2620743971602617
aa(lp2197
g91
aF1.2587168766881307
aa(lp2198
g94
aF2.176484338169593
aa(lp2199
g96
aF1.4191949026919786
aa(lp2200
g98
aF2.54971898397096
aa(lp2201
g100
aF2.548560587570053
aa(lp2202
g103
aF1.4550305775217036
aa(lp2203
g105
aF1.5691289901725285
aa(lp2204
g107
aF2.5216190113745585
aa(lp2205
g109
aF2.5206779031153173
aa(lp2206
g112
aF2.1963801383956687
aa(lp2207
g114
aF1.3144916036857652
aa(lp2208
g116
aF1.94653600056888
aa(lp2209
g118
aF1.8461229801208188
aa(lp2210
g121
aF1.5611981153473626
aa(lp2211
g123
aF1.4367283630376682
aa(lp2212
g125
aF2.4724208286773646
aa(lp2213
g127
aF2.3332639058417928
aa(lp2214
g130
aF3.366741527211312
aa(lp2215
g132
aF1.5254125287460356
aa(lp2216
g134
aF1.4914424896233949
aa(lp2217
g136
aF1.47768115997245
aa(lp2218
g139
aF3.5723814530798137
aa(lp2219
g141
aF4.134825665018027
aa(lp2220
g143
aF0.2995332082111
aa(lp2221
g145
aF2.260274069646857
aa(lp2222
g148
aF5.870021034689521
aa(lp2223
g151
aFnan
aatp2224
Rp2225
aa(lp2226
g19
ag0
((lp2227
(lp2228
g76
aF29.164002312555276
aa(lp2229
g78
aF27.771560970098683
aa(lp2230
g80
aF28.184911092115332
aa(lp2231
g82
aF28.161757151288445
aa(lp2232
g85
aF32.02629007611929
aa(lp2233
g87
aF28.434730884642324
aa(lp2234
g89
aF29.9863278198274
aa(lp2235
g91
aF29.7630467224106
aa(lp2236
g94
aF29.573743575658973
aa(lp2237
g96
aF27.505125652659775
aa(lp2238
g98
aF28.78966021069902
aa(lp2239
g100
aF29.23800786335686
aa(lp2240
g103
aF31.10400091635189
aa(lp2241
g105
aF27.419022629904635
aa(lp2242
g107
aF27.708732523809363
aa(lp2243
g109
aF27.403235739848938
aa(lp2244
g112
aF30.52278111775222
aa(lp2245
g114
aF26.339098971823258
aa(lp2246
g116
aF27.411717706794082
aa(lp2247
g118
aF27.278178468046328
aa(lp2248
g121
aF30.087130069740248
aa(lp2249
g123
aF27.954341464573332
aa(lp2250
g125
aF27.121523056033404
aa(lp2251
g127
aF26.357699584955398
aa(lp2252
g130
aF30.42897441169864
aa(lp2253
g132
aF29.55848981895592
aa(lp2254
g134
aF30.336028117052074
aa(lp2255
g136
aF29.91599712732057
aa(lp2256
g139
aF26.347270511440954
aa(lp2257
g141
aF27.031650621057754
aa(lp2258
g143
aF25.66488632789327
aa(lp2259
g145
aF25.227815701404424
aa(lp2260
g148
aF31.540024984447616
aa(lp2261
g151
aF20.17942218780633
aatp2262
Rp2263
aa(lp2264
g24
ag0
((lp2265
(lp2266
g76
aFnan
aa(lp2267
g78
aFnan
aa(lp2268
g80
aFnan
aa(lp2269
g82
aFnan
aa(lp2270
g85
aFnan
aa(lp2271
g87
aFnan
aa(lp2272
g89
aFnan
aa(lp2273
g91
aFnan
aa(lp2274
g94
aFnan
aa(lp2275
g96
aFnan
aa(lp2276
g98
aFnan
aa(lp2277
g100
aFnan
aa(lp2278
g103
aFnan
aa(lp2279
g105
aFnan
aa(lp2280
g107
aFnan
aa(lp2281
g109
aFnan
aa(lp2282
g112
aFnan
aa(lp2283
g114
aFnan
aa(lp2284
g116
aFnan
aa(lp2285
g118
aFnan
aa(lp2286
g121
aFnan
aa(lp2287
g123
aFnan
aa(lp2288
g125
aFnan
aa(lp2289
g127
aFnan
aa(lp2290
g130
aFnan
aa(lp2291
g132
aFnan
aa(lp2292
g134
aFnan
aa(lp2293
g136
aFnan
aa(lp2294
g139
aFnan
aa(lp2295
g141
aFnan
aa(lp2296
g143
aFnan
aa(lp2297
g145
aFnan
aa(lp2298
g148
aFnan
aa(lp2299
g151
aFnan
aatp2300
Rp2301
aatp2302
Rp2303
aa(lp2304
g31
ag0
((lp2305
(lp2306
g9
ag0
((lp2307
(lp2308
g76
aF7.293427952969032
aa(lp2309
g78
aF5.912332905890309
aa(lp2310
g80
aF5.327705735485751
aa(lp2311
g82
aF5.327002236950583
aa(lp2312
g85
aF6.988128547605109
aa(lp2313
g87
aF8.408100450939004
aa(lp2314
g89
aF7.91459106217786
aa(lp2315
g91
aF7.915713670920947
aa(lp2316
g94
aF6.040726810376185
aa(lp2317
g96
aF6.234638314696883
aa(lp2318
g98
aF5.493607613381432
aa(lp2319
g100
aF5.499923503405397
aa(lp2320
g103
aF7.411772565007451
aa(lp2321
g105
aF5.421515369705826
aa(lp2322
g107
aF4.755753492298929
aa(lp2323
g109
aF4.754362594376509
aa(lp2324
g112
aF8.192744826680489
aa(lp2325
g114
aF7.174213170673249
aa(lp2326
g116
aF6.018767766367212
aa(lp2327
g118
aF6.086913216568348
aa(lp2328
g121
aF5.892728865331309
aa(lp2329
g123
aF5.282109887016303
aa(lp2330
g125
aF4.469118325412187
aa(lp2331
g127
aF4.529239070496802
aa(lp2332
g130
aF8.0418194682933
aa(lp2333
g132
aF8.554694663527034
aa(lp2334
g134
aF7.4879046846525394
aa(lp2335
g136
aF7.485852379906211
aa(lp2336
g139
aF5.524329459343899
aa(lp2337
g141
aF6.135856198489277
aa(lp2338
g143
aF4.763802566099083
aa(lp2339
g145
aF4.802296864797819
aa(lp2340
g148
aF8.361884687599854
aa(lp2341
g151
aF15.49048593612961
aatp2342
Rp2343
aa(lp2344
g14
ag0
((lp2345
(lp2346
g76
aF3.906845392507755
aa(lp2347
g78
aF4.022117813649636
aa(lp2348
g80
aF5.2096792469224225
aa(lp2349
g82
aF5.209979887070036
aa(lp2350
g85
aF6.224705714509034
aa(lp2351
g87
aF2.778818200143815
aa(lp2352
g89
aF3.887351980855388
aa(lp2353
g91
aF3.8897513865672066
aa(lp2354
g94
aF7.0466030324439775
aa(lp2355
g96
aF4.011728122927389
aa(lp2356
g98
aF5.368100846371966
aa(lp2357
g100
aF5.368305515818114
aa(lp2358
g103
aF3.7686325780969945
aa(lp2359
g105
aF4.024939916136209
aa(lp2360
g107
aF5.057040083008018
aa(lp2361
g109
aF5.058253775936103
aa(lp2362
g112
aF6.532847311620884
aa(lp2363
g114
aF3.558319857077006
aa(lp2364
g116
aF4.413542694772362
aa(lp2365
g118
aF4.282176689853132
aa(lp2366
g121
aF5.960851188042361
aa(lp2367
g123
aF4.202435696074316
aa(lp2368
g125
aF5.548565568706583
aa(lp2369
g127
aF5.371318833328806
aa(lp2370
g130
aF7.189146867605949
aa(lp2371
g132
aF2.775185229122876
aa(lp2372
g134
aF3.1501753960438905
aa(lp2373
g136
aF3.1561670187781856
aa(lp2374
g139
aF10.57457665432398
aa(lp2375
g141
aF9.643465937635524
aa(lp2376
g143
aF0.22335679190812782
aa(lp2377
g145
aF5.184739908295553
aa(lp2378
g148
aF11.310731131562271
aa(lp2379
g151
aFnan
aatp2380
Rp2381
aa(lp2382
g19
ag0
((lp2383
(lp2384
g76
aF19.975631284576007
aa(lp2385
g78
aF17.564057116032725
aa(lp2386
g80
aF17.33023968199574
aa(lp2387
g82
aF17.296524852731388
aa(lp2388
g85
aF19.665435733788243
aa(lp2389
g87
aF19.55090624758112
aa(lp2390
g89
aF19.389995571795087
aa(lp2391
g91
aF19.287386567008657
aa(lp2392
g94
aF19.22745518788969
aa(lp2393
g96
aF16.4933553240379
aa(lp2394
g98
aF16.99671192595028
aa(lp2395
g100
aF17.185229843907745
aa(lp2396
g103
aF18.997249975293503
aa(lp2397
g105
aF17.75221594527697
aa(lp2398
g107
aF17.54378486809604
aa(lp2399
g109
aF17.339421715707243
aa(lp2400
g112
aF17.213104040925575
aa(lp2401
g114
aF17.169633398521416
aa(lp2402
g116
aF17.583617522526563
aa(lp2403
g118
aF17.75467854462214
aa(lp2404
g121
aF18.628026060016058
aa(lp2405
g123
aF17.99302314812176
aa(lp2406
g125
aF17.182673644461172
aa(lp2407
g127
aF16.765634673218138
aa(lp2408
g130
aF14.989284355529103
aa(lp2409
g132
aF14.845574753190196
aa(lp2410
g134
aF16.386618693270744
aa(lp2411
g136
aF16.462712991353445
aa(lp2412
g139
aF19.160039818339254
aa(lp2413
g141
aF19.393325955540625
aa(lp2414
g143
aF18.181011944364364
aa(lp2415
g145
aF17.8044251762208
aa(lp2416
g148
aF16.110488028564916
aa(lp2417
g151
aF14.43662693933746
aatp2418
Rp2419
aa(lp2420
g24
ag0
((lp2421
(lp2422
g76
aFnan
aa(lp2423
g78
aFnan
aa(lp2424
g80
aFnan
aa(lp2425
g82
aFnan
aa(lp2426
g85
aFnan
aa(lp2427
g87
aFnan
aa(lp2428
g89
aFnan
aa(lp2429
g91
aFnan
aa(lp2430
g94
aFnan
aa(lp2431
g96
aFnan
aa(lp2432
g98
aFnan
aa(lp2433
g100
aFnan
aa(lp2434
g103
aFnan
aa(lp2435
g105
aFnan
aa(lp2436
g107
aFnan
aa(lp2437
g109
aFnan
aa(lp2438
g112
aFnan
aa(lp2439
g114
aFnan
aa(lp2440
g116
aFnan
aa(lp2441
g118
aFnan
aa(lp2442
g121
aFnan
aa(lp2443
g123
aFnan
aa(lp2444
g125
aFnan
aa(lp2445
g127
aFnan
aa(lp2446
g130
aFnan
aa(lp2447
g132
aFnan
aa(lp2448
g134
aFnan
aa(lp2449
g136
aFnan
aa(lp2450
g139
aFnan
aa(lp2451
g141
aFnan
aa(lp2452
g143
aFnan
aa(lp2453
g145
aFnan
aa(lp2454
g148
aFnan
aa(lp2455
g151
aFnan
aatp2456
Rp2457
aatp2458
Rp2459
aa(lp2460
g52
ag0
((lp2461
(lp2462
g9
ag0
((lp2463
(lp2464
g76
a(lp2465
F6.59093856812
aF2.73642730713
aF20.0755233765
aF0.0856475830078
aF0.128532409668
aF0.189308166504
aF1.24864578247
aF11.6332359314
aF0.630744934082
aF2.78402328491
aF6.99551391602
aF0.254501342773
aF0.267349243164
aF16.9933280945
aF22.4576759338
aF4.26892089844
aF2.08676147461
aF0.068775177002
aF0.0992546081543
aF0.0950317382812
aF0.134307861328
aF10.5515365601
aF1.94961547852
aF22.3422470093
aF0.363628387451
aF1.31871414185
aF25.1188926697
aF0.562816619873
aF0.974838256836
aF3.31129837036
aF2.55409240723
aF0.0833625793457
aF0.114376068115
aF0.0781593322754
aF0.693367004395
aF0.0732574462891
aF0.113067626953
aF0.151679992676
aaa(lp2466
g78
a(lp2467
F6.50373458862
aF2.69753646851
aF19.780708313
aF0.127334594727
aF0.134620666504
aF0.186279296875
aF1.22441864014
aF11.4234428406
aF4.36894226074
aF3.58274841309
aF0.262607574463
aF0.276401519775
aF16.5281906128
aF22.0577812195
aF4.17964553833
aF2.06392288208
aF0.0746459960938
aF0.187511444092
aF0.108001708984
aF10.3069343567
aF1.80543899536
aF0.354267120361
aF2.87481307983
aF6.72159194946
aF0.513751983643
aF0.18932723999
aF0.0862655639648
aF0.0834274291992
aF0.10152053833
aF0.161060333252
aF0.0770835876465
aF0.117179870605
aF0.14965057373
aaa(lp2468
g80
a(lp2469
F6.59158706665
aF0.0927543640137
aF0.1311378479
aF0.191776275635
aF1.2455329895
aF11.6318321228
aF4.41315460205
aF3.62534713745
aF0.269596099854
aF0.265426635742
aF16.9912948608
aF22.4521141052
aF4.26125335693
aF2.09080886841
aF0.303203582764
aF0.0830726623535
aF14.7752456665
aF0.0848808288574
aF0.0986137390137
aF0.132076263428
aF0.103740692139
aF0.161243438721
aF0.105319976807
aF10.5548210144
aF1.84119796753
aF0.353721618652
aF2.91656112671
aF6.82841110229
aF0.515167236328
aF0.189147949219
aF0.179176330566
aF0.146553039551
aF0.148254394531
aF0.179065704346
aF0.0825614929199
aF0.696811676025
aF0.0705223083496
aF0.0835494995117
aF0.15113067627
aaa(lp2470
g82
a(lp2471
F6.59133529663
aF0.0866622924805
aF0.131378173828
aF0.189292907715
aF1.24518966675
aF11.6340484619
aF4.40768432617
aF3.62399673462
aF0.264133453369
aF0.27562713623
aF16.9891242981
aF22.4505615234
aF4.24905395508
aF2.09506225586
aF0.311195373535
aF0.122371673584
aF14.7751846313
aF0.0709381103516
aF0.0973777770996
aF0.12992477417
aF0.0793228149414
aF0.157875061035
aF0.140090942383
aF10.5513000488
aF1.83921813965
aF0.347499847412
aF2.91270828247
aF6.83753967285
aF0.513511657715
aF0.188148498535
aF0.197319030762
aF0.159645080566
aF0.151458740234
aF0.177272796631
aF0.071704864502
aF0.696426391602
aF0.0635108947754
aF0.0798187255859
aF0.146148681641
aaa(lp2472
g85
a(lp2473
F2.26787948608
aF30.3743667603
aF0.236621856689
aF3.70328903198
aF0.833545684814
aF3.76745605469
aF0.0914039611816
aF0.131275177002
aF0.184177398682
aF1.24614334106
aF11.6290283203
aF0.636329650879
aF2.78424072266
aF0.31623840332
aF13.9883079529
aF17.9144287109
aF0.789402008057
aF12.0731201172
aF0.305862426758
aF8.61283111572
aF3.29797363281
aF2.5493888855
aF0.0821914672852
aF0.201671600342
aF0.0780982971191
aF0.689136505127
aF0.0817909240723
aF0.110942840576
aF0.150817871094
aaa(lp2474
g87
a(lp2475
F2.24113845825
aF29.8723907471
aF0.234630584717
aF3.65878677368
aF0.822975158691
aF3.73462677002
aF0.090259552002
aF0.135757446289
aF0.187229156494
aF1.22346115112
aF11.4218978882
aF0.755577087402
aF2.74689865112
aF13.7375869751
aF17.3923377991
aF0.767654418945
aF11.8279914856
aF0.326984405518
aF0.0881118774414
aF0.137763977051
aF0.144931793213
aF0.647937774658
aF32.9532203674
aF6.73467254639
aF0.187885284424
aF0.0876579284668
aF0.0820655822754
aF0.0933494567871
aF0.123741149902
aF0.120223999023
aF0.115821838379
aF0.152961730957
aaa(lp2476
g89
a(lp2477
F25.1512756348
aF0.45076751709
aF0.706001281738
aF0.741111755371
aF0.101547241211
aF0.129577636719
aF0.191505432129
aF1.2540473938
aF11.6355857849
aF0.757476806641
aF2.77759933472
aF13.9860839844
aF17.9206390381
aF0.788234710693
aF12.0751419067
aF0.302356719971
aF0.0794296264648
aF14.7660942078
aF0.085693359375
aF0.0973663330078
aF0.132507324219
aF0.101703643799
aF0.140598297119
aF0.108154296875
aF0.647102355957
aF33.7083282471
aF6.84469604492
aF0.18497467041
aF0.173645019531
aF0.140048980713
aF0.151638031006
aF0.178787231445
aF0.0843811035156
aF0.788921356201
aF0.0789337158203
aF0.112190246582
aF0.152446746826
aaa(lp2478
g91
a(lp2479
F25.1510391235
aF0.452396392822
aF0.707176208496
aF0.741924285889
aF0.0873832702637
aF0.134239196777
aF0.191230773926
aF1.25284957886
aF11.6325683594
aF0.758098602295
aF2.77487182617
aF13.9974632263
aF17.9123535156
aF0.778610229492
aF12.0702972412
aF0.306774139404
aF0.118419647217
aF14.7695083618
aF0.0750007629395
aF0.091136932373
aF0.13000869751
aF0.0818672180176
aF0.13843536377
aF0.13850402832
aF0.648895263672
aF33.7181282043
aF6.8484954834
aF0.186447143555
aF0.179374694824
aF0.16907119751
aF0.15092086792
aF0.177314758301
aF0.0844268798828
aF0.690837860107
aF0.106864929199
aF0.110782623291
aF0.143741607666
aaa(lp2480
g94
a(lp2481
F6.59138870239
aF2.73482894897
aF20.0721664429
aF0.0944747924805
aF0.133296966553
aF0.190170288086
aF1.24554824829
aF11.6339378357
aF0.63094329834
aF2.78804397583
aF6.99702835083
aF0.26301574707
aF0.273662567139
aF16.9860229492
aF22.4565353394
aF4.26990509033
aF2.10432815552
aF0.0709762573242
aF0.0976333618164
aF0.127727508545
aF0.141410827637
aF8.62405776978
aF0.974864959717
aF3.30918502808
aF2.54872512817
aF0.0841636657715
aF0.113628387451
aF0.0834197998047
aF0.692600250244
aF0.118698120117
aF0.112308502197
aF0.152027130127
aaa(lp2482
g96
a(lp2483
F6.50568389893
aF2.69693756104
aF19.7895240784
aF0.0959053039551
aF0.132877349854
aF0.185718536377
aF1.22012710571
aF11.4241523743
aF4.37878036499
aF3.58235549927
aF0.264629364014
aF0.277614593506
aF16.5279312134
aF22.0530509949
aF4.17247772217
aF2.05816650391
aF0.0826225280762
aF0.183547973633
aF0.0870628356934
aF0.64591217041
aF0.188835144043
aF0.0880317687988
aF0.0816879272461
aF0.0705642700195
aF0.0579223632812
aF0.120361328125
aF0.111446380615
aF0.149791717529
aaa(lp2484
g98
a(lp2485
F6.59167098999
aF0.08837890625
aF0.131759643555
aF0.189846038818
aF1.25086593628
aF11.6313972473
aF4.4147605896
aF3.62230300903
aF0.255493164062
aF0.265727996826
aF16.9846115112
aF22.4580230713
aF4.24950027466
aF2.10757064819
aF0.302845001221
aF0.0711097717285
aF14.7750358582
aF0.0827255249023
aF0.0973892211914
aF0.132865905762
aF0.103401184082
aF0.141723632812
aF0.10945892334
aF0.648109436035
aF0.187580108643
aF0.169212341309
aF0.138759613037
aF0.149524688721
aF0.11519241333
aF0.0835227966309
aF0.685726165771
aF0.1181640625
aF0.0756607055664
aF0.143283843994
aaa(lp2486
g100
a(lp2487
F6.59125518799
aF0.0871391296387
aF0.134010314941
aF0.189487457275
aF1.25221633911
aF11.629486084
aF4.41260147095
aF3.62598800659
aF0.255435943604
aF0.268840789795
aF16.986240387
aF22.4540328979
aF4.27570724487
aF2.09281158447
aF0.310386657715
aF0.12686920166
aF14.7727088928
aF0.075267791748
aF0.0982246398926
aF0.13077545166
aF0.0836143493652
aF0.139667510986
aF0.134441375732
aF0.649929046631
aF0.18713760376
aF0.191410064697
aF0.165710449219
aF0.149433135986
aF0.116199493408
aF0.103717803955
aF0.0695648193359
aF0.0654945373535
aF0.0868339538574
aF0.146106719971
aaa(lp2488
g103
a(lp2489
F6.59112167358
aF2.73467636108
aF20.06848526
aF0.0852088928223
aF0.130973815918
aF0.188018798828
aF13.4743270874
aF2.78665161133
aF11.055065155
aF2.57731628418
aF0.268650054932
aF0.265533447266
aF22.4484558105
aF4.25287628174
aF2.09621047974
aF0.0712547302246
aF0.0939865112305
aF0.139011383057
aF0.139301300049
aF10.5531463623
aF1.95356750488
aF22.3390617371
aF0.361335754395
aF1.32112884521
aF25.1185035706
aF0.555274963379
aF0.974002838135
aF0.0739135742188
aF0.165824890137
aF0.1774559021
aF0.0840187072754
aF0.767185211182
aF0.0909652709961
aF0.0866203308105
aF0.153476715088
aaa(lp2490
g105
a(lp2491
F6.50550079346
aF2.69733428955
aF19.7801475525
aF0.0907135009766
aF0.1399269104
aF0.185054779053
aF4.37255096436
aF3.58696365356
aF0.260387420654
aF0.275081634521
aF22.0503463745
aF4.16918182373
aF2.05443572998
aF0.0802688598633
aF0.184196472168
aF0.102272033691
aF10.3045883179
aF1.80269622803
aF0.352474212646
aF2.86539077759
aF6.71686553955
aF0.513774871826
aF0.188613891602
aF0.0750198364258
aF0.168663024902
aF0.0770683288574
aF0.0929756164551
aF0.16202545166
aF0.0761566162109
aF0.114517211914
aF0.150928497314
aaa(lp2492
g107
a(lp2493
F6.59139251709
aF0.0966415405273
aF0.131992340088
aF0.188934326172
aF4.41122817993
aF3.62111663818
aF0.255989074707
aF0.266712188721
aF22.4602355957
aF4.28081130981
aF2.1021270752
aF0.304130554199
aF0.0838661193848
aF14.7741889954
aF0.128482818604
aF0.0967445373535
aF0.132385253906
aF0.0969505310059
aF0.139720916748
aF0.109939575195
aF10.553768158
aF1.83592987061
aF0.354236602783
aF2.91814804077
aF6.83932495117
aF0.514450073242
aF0.186420440674
aF0.0819931030273
aF0.16410446167
aF0.152637481689
aF0.178176879883
aF0.0920867919922
aF0.691112518311
aF0.0716323852539
aF0.0815849304199
aF0.151958465576
aaa(lp2494
g109
a(lp2495
F6.59134674072
aF0.0930862426758
aF0.134029388428
aF0.192390441895
aF4.40656280518
aF3.62358093262
aF0.254825592041
aF0.266307830811
aF22.4528503418
aF4.26536178589
aF2.10623931885
aF0.310913085938
aF0.122249603271
aF14.7789268494
aF0.0747108459473
aF0.0959396362305
aF0.130046844482
aF0.0805778503418
aF0.139720916748
aF0.142917633057
aF10.5520210266
aF1.83838653564
aF0.343109130859
aF2.91911697388
aF6.83545684814
aF0.513214111328
aF0.185626983643
aF0.0743370056152
aF0.185287475586
aF0.152263641357
aF0.11608505249
aF0.0786361694336
aF0.782825469971
aF0.107856750488
aF0.0864448547363
aF0.146102905273
aaa(lp2496
g112
a(lp2497
F30.3730506897
aF0.835277557373
aF20.0778121948
aF2.0866355896
aF0.139297485352
aF0.187671661377
aF13.4777603149
aF2.78776550293
aF17.9222755432
aF4.24821853638
aF3.14811706543
aF0.777847290039
aF12.0606422424
aF0.31143951416
aF0.139148712158
aF8.61819839478
aF0.0752830505371
aF0.139225006104
aF0.175899505615
aF0.0728034973145
aF0.685928344727
aF0.325805664062
aF0.1491355896
aaa(lp2498
g114
a(lp2499
F29.8733062744
aF0.824230194092
aF19.7813644409
aF2.04330444336
aF0.137084960938
aF0.188327789307
aF0.753707885742
aF17.4003715515
aF4.16291427612
aF3.0976524353
aF0.773727416992
aF11.8196258545
aF0.326351165771
aF0.0904693603516
aF0.136859893799
aF0.227821350098
aF0.0994262695312
aF12.3596382141
aF0.400413513184
aF8.43988418579
aF1.16899108887
aF6.17789077759
aF0.189235687256
aF0.0701866149902
aF0.166137695312
aF0.0791244506836
aF0.0847969055176
aF0.0663032531738
aF0.179092407227
aF0.662384033203
aF0.148822784424
aaa(lp2500
g116
a(lp2501
F25.1529426575
aF0.456283569336
aF0.741237640381
aF0.132354736328
aF0.190647125244
aF0.758941650391
aF17.9301376343
aF4.24718093872
aF3.14218902588
aF0.788993835449
aF12.0724945068
aF0.304088592529
aF0.0839881896973
aF14.7734375
aF0.0849914550781
aF0.096305847168
aF0.141254425049
aF0.0983085632324
aF0.141075134277
aF0.114521026611
aF12.5444717407
aF0.401943206787
aF8.61999130249
aF1.18335723877
aF6.27777481079
aF0.186882019043
aF0.0794868469238
aF0.177539825439
aF0.127696990967
aF0.149032592773
aF0.153480529785
aF0.178958892822
aF0.083122253418
aF0.788360595703
aF0.31995010376
aF0.154350280762
aaa(lp2502
g118
a(lp2503
F25.1515884399
aF0.457038879395
aF0.740154266357
aF0.134857177734
aF0.19202041626
aF0.755939483643
aF17.9252281189
aF4.27087783813
aF3.15144729614
aF0.787864685059
aF12.0819587708
aF0.309661865234
aF0.124729156494
aF14.7664985657
aF0.0949020385742
aF0.0963439941406
aF0.140392303467
aF0.0821838378906
aF0.138187408447
aF0.1364402771
aF12.5426864624
aF0.405078887939
aF8.6146697998
aF1.18403625488
aF6.27761077881
aF0.185836791992
aF0.0708961486816
aF0.206859588623
aF0.16724395752
aF0.15092086792
aF0.152725219727
aF0.114253997803
aF0.0696105957031
aF0.700927734375
aF0.145950317383
aaa(lp2504
g121
a(lp2505
F6.59170532227
aF2.73654937744
aF0.833801269531
aF20.0651931763
aF2.0726890564
aF0.0944671630859
aF0.130451202393
aF0.187503814697
aF13.4778213501
aF2.78716278076
aF0.263816833496
aF0.278141021729
aF22.4488334656
aF4.25524139404
aF0.785404205322
aF2.10723495483
aF0.0703392028809
aF0.136852264404
aF0.134693145752
aF0.361400604248
aF0.554889678955
aF0.0740203857422
aF0.140975952148
aF0.116451263428
aF0.0712852478027
aF0.789707183838
aF0.0711364746094
aF0.150779724121
aaa(lp2506
g123
a(lp2507
F6.50494003296
aF2.69803237915
aF0.824081420898
aF19.7752189636
aF2.0545501709
aF0.106517791748
aF0.13346862793
aF0.191738128662
aF3.58493423462
aF0.262886047363
aF0.26863861084
aF22.0528678894
aF4.16581726074
aF0.771636962891
aF2.07163619995
aF0.0826950073242
aF0.12296295166
aF0.648597717285
aF0.404850006104
aF0.418144226074
aF0.515228271484
aF0.187576293945
aF0.0786552429199
aF0.144226074219
aF0.0806045532227
aF0.0890045166016
aF0.0630340576172
aF0.0870399475098
aF0.662273406982
aF0.156639099121
aaa(lp2508
g125
a(lp2509
F6.59226226807
aF0.741687774658
aF0.0906105041504
aF0.131053924561
aF0.191436767578
aF3.61803436279
aF0.269435882568
aF0.264259338379
aF22.4509925842
aF4.27866744995
aF0.789775848389
aF2.10352706909
aF0.30396270752
aF0.0728645324707
aF14.7753868103
aF0.276027679443
aF0.0975532531738
aF0.141319274902
aF0.101078033447
aF0.100646972656
aF0.646709442139
aF0.398586273193
aF0.420555114746
aF0.513896942139
aF0.186847686768
aF0.0593795776367
aF0.184337615967
aF0.169498443604
aF0.151386260986
aF0.162197113037
aF0.182811737061
aF0.0848007202148
aF0.692493438721
aF0.0627708435059
aF0.320465087891
aF0.147132873535
aaa(lp2510
g127
a(lp2511
F6.59157180786
aF0.740184783936
aF0.112537384033
aF0.131423950195
aF0.186676025391
aF3.62406539917
aF0.265247344971
aF0.263114929199
aF22.4496002197
aF4.2593460083
aF0.77815246582
aF2.10567092896
aF0.31031036377
aF0.118469238281
aF14.7776374817
aF0.0693550109863
aF0.0913887023926
aF0.136058807373
aF0.0868911743164
aF0.138092041016
aF0.649429321289
aF0.404792785645
aF0.426761627197
aF0.512142181396
aF0.187980651855
aF0.0641975402832
aF0.180202484131
aF0.153961181641
aF0.15064239502
aF0.149047851562
aF0.109886169434
aF0.084415435791
aF0.704578399658
aF0.118171691895
aF0.148426055908
aaa(lp2512
g130
a(lp2513
F6.59131622314
aF20.0724601746
aF0.144062042236
aF14.7605438232
aF22.235496521
aF13.4830970764
aF0.265377044678
aF0.264053344727
aF16.9846191406
aF22.4511680603
aF4.26746749878
aF2.10279846191
aF0.19095993042
aF0.171405792236
aF0.157344818115
aF0.10941696167
aF11.1953201294
aF2.42419433594
aF0.306098937988
aF3.18954086304
aF0.307563781738
aF0.0581092834473
aF0.105194091797
aaa(lp2514
g132
a(lp2515
F6.50453567505
aF19.77942276
aF0.147796630859
aF14.5163497925
aF21.7579498291
aF0.256404876709
aF0.276153564453
aF16.5168304443
aF22.0517272949
aF4.14819335938
aF2.07242965698
aF0.108406066895
aF0.647769927979
aF0.398597717285
aF18.2960319519
aF11.0727958679
aF0.211265563965
aF0.069263458252
aF0.0652618408203
aF0.0955810546875
aaa(lp2516
g134
a(lp2517
F6.59183120728
aF0.145309448242
aF14.759765625
aF22.2434043884
aF0.268569946289
aF0.26602935791
aF16.9977493286
aF22.4557189941
aF4.28033447266
aF2.08573150635
aF0.0793266296387
aF0.128540039062
aF0.196681976318
aF0.273345947266
aF0.141910552979
aF0.131340026855
aF0.647571563721
aF0.399528503418
aF18.4720497131
aF11.1883621216
aF0.310382843018
aF0.572799682617
aF3.17498397827
aF0.146945953369
aF0.309104919434
aF0.0605773925781
aF0.109569549561
aaa(lp2518
g136
a(lp2519
F6.59139633179
aF0.146228790283
aF14.7458953857
aF22.2409324646
aF0.267845153809
aF0.267112731934
aF16.9835739136
aF22.4532470703
aF4.27624893188
aF2.10845184326
aF0.0754127502441
aF0.126819610596
aF0.19079208374
aF0.274028778076
aF0.140701293945
aF0.134799957275
aF0.649044036865
aF0.404415130615
aF18.4705619812
aF11.1879234314
aF0.309982299805
aF0.572685241699
aF3.18347549438
aF0.152965545654
aF0.305118560791
aF0.0602607727051
aF0.0886726379395
aaa(lp2520
g139
a(lp2521
F0.452068328857
aF0.156566619873
aF0.159191131592
aF7.87471389771
aF7.63243103027
aF1.01181411743
aF5.85793685913
aF7.8848991394
aF0.19270324707
aF0.637432098389
aF2.78812026978
aF6.99280548096
aF0.315662384033
aF10.1087875366
aF13.9890327454
aF17.9252052307
aF4.68396759033
aF3.60245132446
aF3.14939498901
aF12.0639839172
aF4.68542480469
aF0.308486938477
aF0.140132904053
aF0.880016326904
aF22.3406295776
aF8.6248664856
aF2.54782485962
aF0.0804557800293
aF0.311870574951
aF1.3776512146
aF0.0972480773926
aF0.113975524902
aF0.0598564147949
aF0.0704002380371
aF0.373142242432
aF0.110874176025
aaa(lp2522
g141
a(lp2523
F0.454147338867
aF0.167579650879
aF0.170398712158
aF7.72220993042
aF7.49434661865
aF0.981670379639
aF5.72264099121
aF7.72859191895
aF0.191192626953
aF4.37787628174
aF9.82823562622
aF13.7419395447
aF17.4020881653
aF4.59340286255
aF3.52484130859
aF3.09481811523
aF11.8118782043
aF23.8404006958
aF8.95281219482
aF0.189956665039
aF0.0880546569824
aF0.3203125
aF0.132934570312
aF0.0950775146484
aF0.081600189209
aF0.0667762756348
aF0.0869407653809
aF0.143718719482
aaa(lp2524
g143
a(lp2525
F0.459411621094
aF0.493129730225
aF0.563682556152
aF0.164115905762
aF0.160224914551
aF7.87650680542
aF7.63488006592
aF1.01412200928
aF5.86790084839
aF7.86589050293
aF0.189422607422
aF4.40901184082
aF10.1067504883
aF13.9802627563
aF17.9192428589
aF4.68001174927
aF3.60577392578
aF3.15043640137
aF12.0600013733
aF4.68271636963
aF0.3046875
aF0.0838279724121
aF14.7753601074
aF0.079402923584
aF0.0977096557617
aF0.135841369629
aF0.0987968444824
aF0.142189025879
aF0.106159210205
aF0.513343811035
aF0.879611968994
aF8.61345672607
aF0.184410095215
aF0.774990081787
aF0.133136749268
aF0.1360206604
aF0.135890960693
aF0.175945281982
aF0.0596199035645
aF0.081901550293
aF0.37442779541
aF0.0860404968262
aaa(lp2526
g145
a(lp2527
F0.453357696533
aF0.491458892822
aF0.561367034912
aF0.163150787354
aF0.162693023682
aF7.88083648682
aF7.64317703247
aF0.997215270996
aF5.86834716797
aF7.86542510986
aF0.191635131836
aF4.41228485107
aF10.1025886536
aF13.9947242737
aF17.9228248596
aF4.67474746704
aF3.59783935547
aF3.15979385376
aF12.0853347778
aF4.68630599976
aF0.305618286133
aF0.10623550415
aF14.7750015259
aF0.0894813537598
aF0.0951385498047
aF0.139305114746
aF0.0849838256836
aF0.145526885986
aF0.138130187988
aF0.51025390625
aF0.878288269043
aF8.62341690063
aF0.185501098633
aF0.776947021484
aF0.160621643066
aF0.120922088623
aF0.138210296631
aF0.177356719971
aF0.060173034668
aF0.118827819824
aF0.110233306885
aaa(lp2528
g148
a(lp2529
F8.24859619141
aF0.315200805664
aF0.281410217285
aF0.167499542236
aF12.0846557617
aF0.126449584961
aF7.72129058838
aF20.7568473816
aF0.98709487915
aF10.3399963379
aF26.0074462891
aF6.87813186646
aF9.82516860962
aF4.59438323975
aF3.51094055176
aF11.8217697144
aF29.0960884094
aF2.63214492798
aF9.08192825317
aF0.0933799743652
aF0.101226806641
aF0.0561637878418
aF0.114479064941
aF0.125503540039
aaa(lp2530
g151
a(lp2531
F60.8691253662
aF0.618045806885
aF28.452507019
aF14.6887512207
aF55.4403839111
aF0.325305938721
aF0.340751647949
aF0.271167755127
aF2.80528259277
aF27.2314453125
aF2.52912902832
aF0.186359405518
aF4.23652648926
aF0.117626190186
aF0.245719909668
aF0.0937957763672
aF21.1879043579
aF3.82841873169
aF26.3275756836
aF0.220664978027
aF0.166442871094
aF0.2073097229
aF0.182132720947
aF5.19144439697
aF0.835655212402
aF1.1137046814
aF10.526725769
aF0.139293670654
aF0.18070602417
aF0.187381744385
aF0.137264251709
aF0.32434463501
aF0.271633148193
aF0.169921875
aF0.12992477417
aF44.2848167419
aF0.107139587402
aF0.165031433105
aF0.154804229736
aF0.376770019531
aaatp2532
Rp2533
aa(lp2534
g14
ag0
((lp2535
(lp2536
g76
a(lp2537
F0.637519836426
aF0.0900573730469
aF0.0796012878418
aF0.194972991943
aF0.155727386475
aF0.309257507324
aF0.3044090271
aF1.48899459839
aF19.2427597046
aF4.03608322144
aF0.0848503112793
aF0.0862007141113
aF0.117839813232
aF0.078426361084
aF0.100730895996
aF3.91893005371
aF5.4602355957
aF0.0664024353027
aF0.0538940429688
aF0.0587043762207
aF0.180973052979
aF0.125297546387
aF0.0738716125488
aF0.0929946899414
aF0.0850982666016
aF0.0596694946289
aaa(lp2538
g78
a(lp2539
F0.639560699463
aF0.0978317260742
aF0.0880546569824
aF0.197471618652
aF0.165187835693
aF0.640918731689
aF16.5914497375
aF0.455883026123
aF0.759330749512
aF3.95360946655
aF0.0944366455078
aF0.0890960693359
aF0.0884475708008
aF0.094367980957
aF0.0803527832031
aF0.126190185547
aF0.137107849121
aF3.85222244263
aF5.34606552124
aF14.0539779663
aF0.0723876953125
aF0.0514984130859
aF0.085521697998
aF0.147495269775
aF0.154148101807
aF0.0576324462891
aF0.107753753662
aF0.0972862243652
aF0.0587463378906
aaa(lp2540
g80
a(lp2541
F0.0954208374023
aF0.0848083496094
aF0.198474884033
aF0.158592224121
aF0.640087127686
aF16.786945343
aF0.460456848145
aF0.75602722168
aF4.03977584839
aF0.115844726562
aF3.92165374756
aF5.45589065552
aF14.1910629272
aF0.0746307373047
aF0.0931701660156
aF0.0606422424316
aaa(lp2542
g82
a(lp2543
F0.092456817627
aF0.0847625732422
aF0.194843292236
aF0.157112121582
aF0.640758514404
aF16.7825317383
aF0.457363128662
aF0.754634857178
aF4.03446578979
aF0.114418029785
aF3.92081451416
aF5.46025085449
aF14.1899490356
aF0.0664138793945
aF0.0846099853516
aF0.0575942993164
aaa(lp2544
g85
a(lp2545
F0.0734329223633
aF0.0932235717773
aF0.0822944641113
aF0.199638366699
aF0.159675598145
aF0.310218811035
aF0.304088592529
aF1.4898147583
aF0.374069213867
aF0.173477172852
aF0.0768699645996
aF0.128349304199
aF0.625755310059
aF0.134033203125
aF0.093391418457
aF0.108558654785
aF0.374977111816
aF0.301399230957
aF33.7162017822
aF0.500625610352
aF0.0658226013184
aF0.0605087280273
aF0.0456314086914
aF0.180854797363
aF0.143306732178
aF0.0740699768066
aF0.100330352783
aF0.0884437561035
aF0.0599708557129
aaa(lp2546
g87
a(lp2547
F0.078727722168
aF0.0979690551758
aF0.0892181396484
aF0.1904296875
aF0.160129547119
aF0.301322937012
aF0.155792236328
aF0.381881713867
aF0.0940933227539
aF0.367332458496
aF0.139923095703
aF0.0982055664062
aF0.148754119873
aF0.374362945557
aF0.501697540283
aF14.0496444702
aF0.0845718383789
aF0.0797805786133
aF0.073184967041
aF0.17654800415
aF0.142166137695
aF0.0604095458984
aF0.0995788574219
aF0.0900535583496
aF0.0595207214355
aaa(lp2548
g89
a(lp2549
F0.0951461791992
aF0.0837211608887
aF0.19751739502
aF0.160221099854
aF0.309242248535
aF0.153820037842
aF0.116683959961
aF0.379608154297
aF0.501304626465
aF14.192237854
aF0.0692481994629
aF0.0886421203613
aF0.0595741271973
aaa(lp2550
g91
a(lp2551
F0.0929641723633
aF0.0857810974121
aF0.195453643799
aF0.15930557251
aF0.308177947998
aF0.131145477295
aF0.111572265625
aF0.372409820557
aF0.501804351807
aF14.1968078613
aF0.0675964355469
aF0.0826530456543
aF0.0576477050781
aaa(lp2552
g94
a(lp2553
F0.639278411865
aF0.091983795166
aF0.0845489501953
aF0.198535919189
aF0.158863067627
aF0.310077667236
aF0.307163238525
aF1.49047470093
aF19.2446060181
aF0.381397247314
aF4.03630447388
aF0.076416015625
aF0.0884132385254
aF0.118305206299
aF0.082706451416
aF0.102561950684
aF0.377967834473
aF0.299903869629
aF33.7252998352
aF0.502536773682
aF0.0676345825195
aF0.0561904907227
aF0.059196472168
aF0.179931640625
aF0.128288269043
aF0.0745010375977
aF0.100601196289
aF0.0849990844727
aF0.0493583679199
aaa(lp2554
g96
a(lp2555
F0.637229919434
aF0.0980529785156
aF0.0880584716797
aF0.199771881104
aF0.16321182251
aF0.640563964844
aF16.6040039062
aF0.462314605713
aF0.754699707031
aF3.94812011719
aF0.0779495239258
aF0.105861663818
aF0.0879821777344
aF0.0796966552734
aF0.0975761413574
aF0.136619567871
aF0.125911712646
aF0.501663208008
aF14.0552902222
aF0.0800933837891
aF0.0779113769531
aF0.0801544189453
aF0.15071105957
aF0.12183380127
aF0.0781517028809
aF0.106479644775
aF0.0934066772461
aF0.0841369628906
aaa(lp2556
g98
a(lp2557
F0.093433380127
aF0.0854568481445
aF0.197834014893
aF0.159641265869
aF0.641025543213
aF16.7835159302
aF0.462837219238
aF0.752941131592
aF4.03969573975
aF0.116851806641
aF0.499423980713
aF14.1911468506
aF0.0734062194824
aF0.0928153991699
aF0.0557594299316
aaa(lp2558
g100
a(lp2559
F0.0912857055664
aF0.0857620239258
aF0.194797515869
aF0.157676696777
aF0.639759063721
aF16.7797775269
aF0.460746765137
aF0.755062103271
aF4.03935241699
aF0.114994049072
aF0.502182006836
aF14.1936836243
aF0.0676155090332
aF0.0890464782715
aF0.0566673278809
aaa(lp2560
g103
a(lp2561
F0.637641906738
aF0.0937538146973
aF0.0813636779785
aF0.19633102417
aF0.846019744873
aF1.03297424316
aF0.156764984131
aF0.307903289795
aF0.385955810547
aF19.2534332275
aF0.384868621826
aF4.03137207031
aF0.0825309753418
aF0.0904769897461
aF0.11922454834
aF0.0781593322754
aF0.100589752197
aF3.91899490356
aF5.46063232422
aF2.80212402344
aF0.0681953430176
aF0.064868927002
aF0.0609016418457
aF0.173629760742
aF0.0774993896484
aF0.0972366333008
aF0.0878829956055
aF0.0495262145996
aaa(lp2562
g105
a(lp2563
F0.638553619385
aF0.097972869873
aF0.0880241394043
aF0.203178405762
aF0.838912963867
aF1.01886749268
aF0.164669036865
aF16.6042900085
aF0.453479766846
aF3.95058441162
aF0.0936813354492
aF0.126258850098
aF0.0966758728027
aF0.0788116455078
aF0.0677490234375
aF0.102546691895
aF0.138683319092
aF3.84820175171
aF0.571273803711
aF14.0468978882
aF0.077091217041
aF0.0722045898438
aF0.0690002441406
aF0.152400970459
aF0.0688972473145
aF0.108955383301
aF0.0978546142578
aF0.0598945617676
aaa(lp2564
g107
a(lp2565
F0.0913276672363
aF0.0844841003418
aF0.19450378418
aF0.849472045898
aF1.0369758606
aF0.160133361816
aF16.7846603394
aF0.453674316406
aF4.03645706177
aF0.116436004639
aF3.91687011719
aF0.574180603027
aF14.193157196
aF0.0684776306152
aF0.169689178467
aF0.0889320373535
aF0.0480918884277
aaa(lp2566
g109
a(lp2567
F0.0943222045898
aF0.0850791931152
aF0.196727752686
aF0.846824645996
aF1.03359603882
aF0.158767700195
aF16.7859344482
aF0.454940795898
aF4.03607559204
aF0.114219665527
aF3.92192459106
aF0.57194519043
aF14.1951446533
aF0.0676078796387
aF0.143943786621
aF0.0849456787109
aF0.0595245361328
aaa(lp2568
g112
a(lp2569
F0.0938568115234
aF0.0826835632324
aF0.197174072266
aF0.845985412598
aF1.03269577026
aF11.2113418579
aF0.306224822998
aF0.303447723389
aF1.49042892456
aF0.385768890381
aF0.164936065674
aF0.383388519287
aF0.107776641846
aF0.082275390625
aF0.57141494751
aF0.101421356201
aF0.109729766846
aF0.374649047852
aF0.301818847656
aF33.7177391052
aF0.572364807129
aF14.190410614
aF2.8014793396
aF0.0678329467773
aF0.0558471679688
aF0.0577049255371
aF0.206737518311
aF0.13321685791
aF0.0756454467773
aF0.0944290161133
aF0.118732452393
aF0.0450057983398
aaa(lp2570
g114
a(lp2571
F0.0955543518066
aF0.0890197753906
aF0.198860168457
aF0.840591430664
aF1.01696395874
aF10.8729095459
aF0.308536529541
aF0.30696105957
aF0.15784072876
aF0.379699707031
aF0.0737533569336
aF0.521327972412
aF0.149654388428
aF0.378963470459
aF14.049533844
aF0.0908279418945
aF0.078239440918
aF0.0679626464844
aF0.161033630371
aF0.154495239258
aF0.0600967407227
aF0.0977439880371
aF0.0827369689941
aaa(lp2572
g116
a(lp2573
F0.0931739807129
aF0.0838737487793
aF0.198047637939
aF0.84716796875
aF1.03533172607
aF11.2177467346
aF0.310737609863
aF0.307983398438
aF0.173484802246
aF0.116836547852
aF0.378910064697
aF14.1937942505
aF0.0680351257324
aF0.114486694336
aF0.0584297180176
aaa(lp2574
g118
a(lp2575
F0.0944595336914
aF0.0847511291504
aF0.197261810303
aF0.853733062744
aF1.03235626221
aF11.2140274048
aF0.316799163818
aF0.307765960693
aF0.126728057861
aF0.112041473389
aF0.376705169678
aF14.1928443909
aF0.0674438476562
aF0.118148803711
aF0.0436744689941
aF0.399227142334
aaa(lp2576
g121
a(lp2577
F0.0940551757812
aF0.080867767334
aF0.19686126709
aF0.850360870361
aF1.03313827515
aF0.158821105957
aF0.317165374756
aF0.301700592041
aF1.49081420898
aF0.38525390625
aF0.172801971436
aF0.384540557861
aF0.0793266296387
aF0.090446472168
aF0.277214050293
aF0.0877952575684
aF0.101509094238
aF0.0836868286133
aF0.376358032227
aF0.302841186523
aF33.7140846252
aF5.45782852173
aF2.80192184448
aF0.0679016113281
aF0.0577812194824
aF0.0392990112305
aF0.174293518066
aF0.144283294678
aF0.0768394470215
aF0.0969657897949
aF0.0597801208496
aF0.401802062988
aaa(lp2578
g123
a(lp2579
F0.0974502563477
aF0.0874481201172
aF0.198265075684
aF0.83952331543
aF1.0207901001
aF0.161449432373
aF0.307434082031
aF16.5935211182
aF0.092357635498
aF0.128395080566
aF0.271137237549
aF0.0755882263184
aF0.1044921875
aF0.0875511169434
aF0.462066650391
aF0.567626953125
aF14.0515823364
aF0.0851402282715
aF0.0644149780273
aF0.0770530700684
aF0.162364959717
aF0.122169494629
aF0.0757217407227
aF0.102115631104
aF0.0825500488281
aaa(lp2580
g125
a(lp2581
F0.0919227600098
aF0.0839614868164
aF0.196582794189
aF0.850189208984
aF1.03479003906
aF0.159477233887
aF0.305599212646
aF16.7920684814
aF0.117221832275
aF0.086109161377
aF0.575054168701
aF14.1952705383
aF0.0682487487793
aF0.0573959350586
aaa(lp2582
g127
a(lp2583
F0.0923881530762
aF0.0846405029297
aF0.194728851318
aF0.852554321289
aF1.03308105469
aF0.16284942627
aF0.305534362793
aF16.783744812
aF0.126613616943
aF0.0800094604492
aF0.57275390625
aF14.191532135
aF0.0641021728516
aF0.0574760437012
aF0.396949768066
aaa(lp2584
g130
a(lp2585
F3.74921035767
aF0.639015197754
aF0.351188659668
aF0.850994110107
aF1.03475952148
aF11.2130050659
aF0.617347717285
aF0.385047912598
aF19.2511100769
aF0.504539489746
aF4.03511810303
aF0.0612564086914
aF0.12813949585
aF0.278545379639
aF1.05176544189
aF0.138332366943
aF0.0835151672363
aF0.378074645996
aF0.300895690918
aF30.818397522
aF14.318687439
aF0.499691009521
aF0.306812286377
aF18.4673347473
aF0.0755310058594
aF0.573928833008
aF0.193992614746
aF0.150901794434
aF0.16011428833
aF0.0659675598145
aF0.247451782227
aF0.0763702392578
aF0.0954284667969
aaa(lp2586
g132
a(lp2587
F3.71120452881
aF0.63712310791
aF0.355381011963
aF0.838005065918
aF1.01793670654
aF10.8791923523
aF9.23887252808
aF0.388946533203
aF0.45397567749
aF3.9524269104
aF0.146816253662
aF0.0871047973633
aF0.0776634216309
aF0.187107086182
aF3.94925308228
aF0.147968292236
aF0.20486831665
aF0.500549316406
aF0.307708740234
aF0.0500869750977
aF0.0781211853027
aF6.73477172852
aF0.20287322998
aF0.158622741699
aF2.42529296875
aF0.149364471436
aF0.0708961486816
aF0.0591430664062
aF0.0926055908203
aF0.0798110961914
aF0.104095458984
aaa(lp2588
g134
a(lp2589
F0.355888366699
aF0.850246429443
aF1.03341674805
aF11.2132911682
aF9.38714599609
aF0.386135101318
aF0.463207244873
aF4.04026412964
aF0.121379852295
aF0.0775871276855
aF0.083984375
aF0.502883911133
aF0.300998687744
aF0.0702514648438
aF0.200176239014
aF0.169620513916
aF0.0651893615723
aF0.331958770752
aF0.0752449035645
aF0.0999794006348
aaa(lp2590
g136
a(lp2591
F0.355335235596
aF0.848217010498
aF1.03475189209
aF11.2163619995
aF9.38651657104
aF0.369255065918
aF0.457214355469
aF4.03718185425
aF0.117538452148
aF0.0879287719727
aF0.0967216491699
aF0.50089263916
aF0.304206848145
aF0.0651779174805
aF0.173042297363
aF0.145584106445
aF0.0675315856934
aF0.114208221436
aF0.0759201049805
aF0.100036621094
aaa(lp2592
g139
a(lp2593
F0.403720855713
aF0.562175750732
aF0.639667510986
aF0.306953430176
aF1.48974609375
aF0.635356903076
aF0.0713310241699
aF0.0842781066895
aF0.0894050598145
aF0.137992858887
aF0.0985488891602
aF0.13179397583
aF0.517402648926
aF33.7150001526
aF38.5751533508
aF0.500984191895
aF0.13512802124
aF0.0539474487305
aF0.0608215332031
aF0.204612731934
aF0.0765190124512
aF0.101852416992
aaa(lp2594
g141
a(lp2595
F0.405464172363
aF0.561805725098
aF0.639778137207
aF0.307113647461
aF0.624069213867
aF23.8607673645
aF0.0799560546875
aF0.0981330871582
aF0.137645721436
aF0.760536193848
aF0.105449676514
aF0.0696563720703
aF0.138069152832
aF34.8962020874
aF7.16342544556
aF24.4669418335
aF0.15172958374
aF0.0757331848145
aF0.0666999816895
aF0.179996490479
aF0.0808906555176
aF0.105709075928
aF0.125217437744
aaa(lp2596
g143
a(lp2597
F0.305282592773
aF0.632858276367
aF0.119068145752
aF0.500301361084
aF0.140472412109
aF0.0992164611816
aaa(lp2598
g145
a(lp2599
F0.304588317871
aF0.632946014404
aF0.113861083984
aF0.499313354492
aF0.1357421875
aF14.0093193054
aF0.126148223877
aaa(lp2600
g148
a(lp2601
F0.311752319336
aF0.824325561523
aF0.988723754883
aF5.74081039429
aF7.73182678223
aF0.19100189209
aF48.0714759827
aF1.50495529175
aF13.7320632935
aF17.404548645
aF3.0945892334
aF23.86195755
aF0.0784339904785
aF0.0983428955078
aF0.0803298950195
aF0.754215240479
aF0.109134674072
aF0.111145019531
aF0.141609191895
aF34.8876571655
aF7.15995025635
aF24.4668006897
aF6.87429428101
aF0.0429229736328
aF0.056095123291
aF0.053035736084
aF0.0800018310547
aF0.0733947753906
aF0.197971343994
aF0.17032623291
aF0.0771980285645
aF0.385192871094
aF0.0592155456543
aF0.165416717529
aaa(lp2602
g151
a(lp2603
aatp2604
Rp2605
aa(lp2606
g19
ag0
((lp2607
(lp2608
g76
a(lp2609
F31.3035583496
aF12.9569587708
aF46.251411438
aF58.669757843
aF10.898109436
aF12.9955215454
aF88.3634376526
aF19.5920753479
aF25.6204147339
aF45.7982711792
aF52.8073158264
aF14.4641304016
aF16.7206726074
aF6.18310546875
aF20.8844985962
aF13.7927246094
aF36.8778915405
aF16.7847976685
aF8.84752655029
aF4.98348617554
aF35.9496231079
aF30.0343170166
aF20.0401611328
aF63.5370254517
aF17.3872146606
aF8.28081130981
aF21.0352935791
aF22.2295188904
aF38.9547424316
aF6.29401397705
aF52.3751182556
aF4.84605789185
aF42.7436447144
aF55.774471283
aF48.6373214722
aF36.9890823364
aaa(lp2610
g78
a(lp2611
F32.0447883606
aF13.1951370239
aF47.5140647888
aF54.9013214111
aF11.4160842896
aF12.732711792
aF87.8511238098
aF32.0897941589
aF22.5099372864
aF45.3272705078
aF21.1874771118
aF52.9677963257
aF27.0447311401
aF33.9587974548
aF14.8436164856
aF16.306640625
aF5.99086380005
aF20.4514122009
aF13.0938949585
aF37.8010978699
aF8.7823600769
aF34.8685264587
aF24.5766372681
aF19.6061286926
aF21.0139808655
aF17.2267723083
aF13.6027832031
aF8.60487747192
aF22.3066101074
aF23.7059020996
aF44.806137085
aF43.2900009155
aF19.1182594299
aF5.44018173218
aF15.3483848572
aF59.5828590393
aF42.2761611938
aF27.9341926575
aaa(lp2612
g80
a(lp2613
F31.8688011169
aF12.7069664001
aF49.392326355
aF59.3258323669
aF6.57360458374
aF11.9176101685
aF13.7148628235
aF16.8564491272
aF11.7276191711
aF90.2178077698
aF32.9265708923
aF22.3816223145
aF45.2188835144
aF19.5387191772
aF52.7769851685
aF27.974281311
aF34.2047805786
aF14.4930953979
aF16.7170028687
aF6.16767501831
aF21.3806381226
aF12.977519989
aF34.3075447083
aF8.97666168213
aF37.2781410217
aF32.0478553772
aF20.5497245789
aF23.2143745422
aF19.6615333557
aF13.5020751953
aF8.86205291748
aF23.863067627
aF23.6684570312
aF43.2956924438
aF42.2413063049
aF18.1400871277
aF4.76516342163
aF14.6718330383
aF31.2841377258
aF33.4375343323
aF47.2230567932
aF34.5009231567
aF53.0478134155
aF50.8326644897
aF37.8896446228
aaa(lp2614
g82
a(lp2615
F31.8062782288
aF12.8304023743
aF48.3837356567
aF58.9646110535
aF6.04637145996
aF11.2827529907
aF12.931388855
aF16.5589752197
aF11.7505302429
aF89.6475257874
aF32.6602935791
aF22.4455871582
aF44.553730011
aF19.9297218323
aF52.7661132812
aF28.2144775391
aF34.8962631226
aF14.03383255
aF16.4754486084
aF6.16337966919
aF21.393032074
aF12.9897155762
aF36.5461845398
aF8.773853302
aF36.9115409851
aF30.8652801514
aF20.4846458435
aF23.3045845032
aF19.6469459534
aF13.4693031311
aF8.82789993286
aF23.994846344
aF23.0753364563
aF44.1456642151
aF43.2358665466
aF18.922290802
aF4.96934509277
aF14.9782371521
aF31.5618934631
aF35.2360038757
aF47.5127258301
aF34.3605308533
aF52.7182197571
aF50.0090293884
aF37.0046768188
aaa(lp2616
g85
a(lp2617
F25.1520805359
aF34.1685295105
aF5.47797393799
aF88.0913047791
aF19.7147903442
aF25.384437561
aF45.771320343
aF52.8780555725
aF14.087638855
aF15.9172554016
aF3.46694564819
aF19.3485031128
aF13.997844696
aF32.7752075195
aF18.4113311768
aF32.2222709656
aF55.3790016174
aF58.2254447937
aF80.8815002441
aF32.4344940186
aF42.4879341125
aF27.5881690979
aF40.2256126404
aF60.0722618103
aF35.3952217102
aF33.4861755371
aF17.5079917908
aF24.4777107239
aF28.1580238342
aF12.8469848633
aF15.2427482605
aF8.10908889771
aF25.0462379456
aF21.513458252
aF37.9103775024
aF6.28710174561
aF52.2532272339
aF4.93232727051
aF42.5404205322
aF55.7216835022
aF48.6258964539
aF30.8895988464
aaa(lp2618
g87
a(lp2619
F24.6626853943
aF34.57264328
aF5.39083099365
aF88.7625732422
aF16.6701393127
aF16.5030975342
aF28.1036071777
aF20.3649215698
aF52.0506782532
aF10.8501663208
aF17.7559280396
aF14.4814910889
aF17.4916267395
aF6.7433052063
aF20.2597427368
aF15.5351028442
aF41.9840126038
aF4.62496566772
aF7.32902145386
aF34.6105194092
aF53.0759086609
aF53.7264785767
aF80.1400299072
aF32.2582931519
aF43.6399307251
aF25.3981132507
aF52.5736694336
aF19.5708961487
aF24.5441703796
aF17.9314727783
aF12.346446991
aF14.9484672546
aF8.3611907959
aF25.101852417
aF21.8008079529
aF42.8010025024
aF43.5465164185
aF18.370098114
aF5.25169372559
aF15.0766868591
aF59.366230011
aF41.189037323
aF32.9273757935
aaa(lp2620
g89
a(lp2621
F7.57497024536
aF36.0850067139
aF42.7936820984
aF45.7058868408
aF11.3161621094
aF9.73104095459
aF90.1495132446
aF16.8574485779
aF17.505771637
aF26.8764801025
aF20.054309845
aF55.0950317383
aF10.7896347046
aF18.8343849182
aF14.904083252
aF17.2006492615
aF7.09529876709
aF20.4155960083
aF15.8450813293
aF43.3083152771
aF4.93522262573
aF8.03434753418
aF35.4128646851
aF55.4974632263
aF58.3845329285
aF81.9175567627
aF33.5577430725
aF43.9946327209
aF28.871963501
aF53.1446266174
aF19.9174690247
aF25.2555541992
aF19.9082527161
aF13.0437088013
aF15.4976005554
aF8.31881332397
aF25.4024543762
aF23.2985115051
aF44.0648918152
aF43.1719017029
aF18.9844703674
aF4.91719818115
aF15.3069190979
aF32.8193016052
aF35.9307022095
aF48.1731033325
aF35.3976402283
aF56.885635376
aF49.6441116333
aF31.4888496399
aaa(lp2622
g91
a(lp2623
F7.49264907837
aF36.2147789001
aF42.5061683655
aF44.9026603699
aF11.0160331726
aF9.78173828125
aF90.0757331848
aF16.8558959961
aF17.5353927612
aF27.0161514282
aF20.3636245728
aF55.1877937317
aF10.6128120422
aF18.7578430176
aF14.8354721069
aF17.6843910217
aF7.06396484375
aF20.5613632202
aF15.6683921814
aF43.1688613892
aF4.85874938965
aF7.5366859436
aF34.3875427246
aF55.2777481079
aF58.1907997131
aF81.8731384277
aF33.0017356873
aF42.3775024414
aF28.2179985046
aF52.7252655029
aF19.9135246277
aF24.8680496216
aF19.8001441956
aF12.8969993591
aF15.3916244507
aF8.09236526489
aF25.1174659729
aF22.6568603516
aF43.2660255432
aF42.9207572937
aF18.4789772034
aF4.81372070312
aF14.7157287598
aF31.0184173584
aF35.3192214966
aF46.358215332
aF34.8481864929
aF53.0447006226
aF52.0775032043
aF36.8049621582
aaa(lp2624
g94
a(lp2625
F31.5777282715
aF12.4890365601
aF48.115447998
aF59.1970481873
aF11.9356918335
aF13.6647071838
aF89.9783859253
aF19.679649353
aF25.699306488
aF46.104888916
aF52.7742767334
aF14.1727600098
aF16.8466148376
aF6.23127746582
aF21.3381347656
aF13.4797782898
aF37.3249435425
aF16.7912368774
aF8.64960479736
aF36.7561035156
aF31.0021438599
aF20.3797645569
aF64.6977081299
aF33.9845123291
aF17.6708145142
aF24.4763946533
aF28.0993766785
aF12.7513313293
aF8.12789154053
aF22.1539001465
aF21.4870567322
aF37.972694397
aF6.29111862183
aF52.1945381165
aF4.92569732666
aF42.6118850708
aF55.8157844543
aF49.5993499756
aF36.3274154663
aaa(lp2626
g96
a(lp2627
F29.8682556152
aF11.9635009766
aF46.968624115
aF55.4406471252
aF11.094291687
aF12.2276268005
aF86.8775062561
aF29.2560539246
aF20.4906196594
aF41.5065078735
aF19.4754142761
aF50.2265701294
aF26.8056373596
aF31.8363075256
aF13.8466262817
aF15.3672485352
aF6.21340179443
aF20.2546463013
aF13.1130142212
aF37.4662322998
aF8.83484649658
aF35.5630874634
aF24.5228157043
aF18.7082519531
aF41.7636489868
aF32.9488143921
aF36.1120262146
aF51.3485832214
aF19.5762176514
aF21.8720626831
aF17.1104927063
aF10.9331016541
aF13.804977417
aF8.98710632324
aF23.3972740173
aF23.2561607361
aF44.8923339844
aF44.0475921631
aF17.1499862671
aF5.00296020508
aF15.2108650208
aF44.4446716309
aF42.4283447266
aF28.0105743408
aaa(lp2628
g98
a(lp2629
F32.1297607422
aF13.3600349426
aF49.3895568848
aF59.6343460083
aF6.52751159668
aF11.3302993774
aF12.9381141663
aF16.1583366394
aF11.4927978516
aF89.2872200012
aF30.5014915466
aF21.5688095093
aF38.4347915649
aF19.1388092041
aF51.2034873962
aF28.7072486877
aF34.4164466858
aF14.3133811951
aF16.6189651489
aF6.23303222656
aF21.1022338867
aF13.5296478271
aF37.3601608276
aF8.99430084229
aF37.3117713928
aF31.8245773315
aF20.285118103
aF44.8042030334
aF33.7125244141
aF40.3507461548
aF53.1823043823
aF19.9113960266
aF25.0515327454
aF19.6422195435
aF13.1178588867
aF13.5726737976
aF8.80736541748
aF23.9267539978
aF23.235370636
aF43.8599357605
aF43.3390693665
aF18.9754066467
aF4.96911621094
aF15.2971763611
aF32.9536705017
aF35.5857620239
aF48.1877555847
aF35.4632377625
aF56.5128669739
aF49.7500267029
aF30.271446228
aaa(lp2630
g100
a(lp2631
F32.2588920593
aF13.3762207031
aF49.0834922791
aF59.4254646301
aF6.44945907593
aF11.808177948
aF13.7695388794
aF17.028755188
aF11.8721656799
aF89.9174003601
aF32.9709701538
aF22.6376266479
aF45.5466842651
aF20.5910720825
aF53.7726631165
aF28.9944572449
aF35.3089485168
aF14.6898841858
aF17.2085342407
aF6.30305099487
aF21.9267425537
aF13.7975997925
aF37.7873878479
aF9.04373168945
aF37.6479988098
aF32.1439399719
aF20.696144104
aF44.8747177124
aF33.7241477966
aF39.7653388977
aF52.103553772
aF19.9150047302
aF25.2154846191
aF19.9399147034
aF12.4009895325
aF13.2901420593
aF8.7557220459
aF23.492149353
aF22.8399581909
aF43.2865219116
aF42.9770202637
aF17.9996299744
aF4.86223602295
aF15.0835113525
aF31.9175720215
aF35.1577911377
aF47.7798309326
aF34.5653915405
aF57.8059921265
aF50.3166618347
aF37.0121154785
aaa(lp2632
g103
a(lp2633
F31.4151382446
aF12.9151916504
aF48.5367622375
aF58.462677002
aF11.5436096191
aF13.1783332825
aF89.2702445984
aF19.4933242798
aF25.2791061401
aF41.5989303589
aF51.5034751892
aF31.1706809998
aF16.5900154114
aF6.17889785767
aF21.4644622803
aF13.4170265198
aF37.2729606628
aF16.7913818359
aF32.9204025269
aF51.641330719
aF36.6045951843
aF31.1956176758
aF20.2308006287
aF64.9342384338
aF17.1320114136
aF8.13410186768
aF22.3317260742
aF21.9547996521
aF39.0500183105
aF6.29279708862
aF43.2045440674
aF18.5993003845
aF5.05573654175
aF43.3669548035
aF56.5319023132
aF45.4640922546
aF40.1208457947
aaa(lp2634
g105
a(lp2635
F31.3810081482
aF12.9922218323
aF49.2776107788
aF56.8055915833
aF10.909576416
aF13.2181587219
aF87.5509529114
aF30.5913581848
aF22.3088302612
aF43.6776008606
aF20.5081558228
aF52.4531784058
aF28.7355575562
aF33.2499160767
aF14.2462463379
aF14.5810165405
aF16.7657203674
aF6.42667007446
aF21.4132614136
aF12.9646492004
aF38.8304367065
aF9.25182342529
aF5.59464263916
aF50.2718772888
aF34.1584396362
aF26.420463562
aF19.375743866
aF19.8561592102
aF15.57787323
aF13.1118202209
aF8.56870651245
aF24.5154037476
aF23.0095367432
aF43.9060668945
aF42.7578048706
aF18.8284645081
aF5.44247436523
aF15.1407432556
aF59.1595153809
aF42.4037361145
aF27.9409141541
aaa(lp2636
g107
a(lp2637
F32.2767677307
aF13.3941993713
aF49.3572502136
aF59.567653656
aF6.59372329712
aF11.7223358154
aF13.4591674805
aF17.1301460266
aF11.772277832
aF90.2567024231
aF32.7795448303
aF22.4862937927
aF45.1653709412
aF20.3509864807
aF53.7105369568
aF28.6849136353
aF34.6993141174
aF14.6017684937
aF14.7921905518
aF16.7369804382
aF6.2160987854
aF21.584690094
aF13.391746521
aF37.3569869995
aF9.02598571777
aF5.46892547607
aF51.945980072
aF37.3605804443
aF32.165512085
aF20.5704040527
aF23.0529747009
aF19.7775230408
aF13.5802459717
aF8.86923217773
aF23.864616394
aF23.2630958557
aF44.0998535156
aF43.1388893127
aF18.6155853271
aF4.97076797485
aF15.1579971313
aF32.7402114868
aF35.8214416504
aF35.4648628235
aF53.0267295837
aF50.7908401489
aF31.4505271912
aaa(lp2638
g109
a(lp2639
F31.3416938782
aF12.9879341125
aF49.3679542542
aF59.585105896
aF6.48762893677
aF11.8771362305
aF13.6576385498
aF16.6714134216
aF11.9764137268
aF90.0107574463
aF33.0714607239
aF22.3659172058
aF44.9532966614
aF20.4406967163
aF53.4897193909
aF28.2156448364
aF34.4170799255
aF14.1149978638
aF14.0529594421
aF16.8818435669
aF6.15610122681
aF20.2950439453
aF12.6483459473
aF35.5649414062
aF8.60274124146
aF5.51718139648
aF52.1403388977
aF37.3421211243
aF32.1048126221
aF20.509311676
aF23.1204185486
aF20.0474052429
aF13.6210899353
aF8.86323165894
aF23.9572143555
aF23.6403503418
aF43.9340820312
aF43.2434883118
aF17.7975120544
aF4.82779312134
aF14.7007827759
aF31.6145629883
aF34.9338989258
aF34.4049491882
aF45.3743934631
aF48.7300491333
aF38.2926254272
aaa(lp2640
g112
a(lp2641
F25.1534233093
aF7.4783782959
aF34.6867294312
aF41.7078933716
aF44.8810501099
aF11.4551391602
aF14.1580696106
aF87.8128662109
aF19.6032676697
aF25.2705192566
aF43.2237167358
aF52.6485824585
aF14.0975112915
aF15.5900421143
aF3.30123901367
aF19.4497108459
aF13.8537445068
aF32.4937934875
aF18.5246543884
aF31.4825401306
aF52.4654388428
aF24.6209373474
aF57.6435165405
aF30.6815681458
aF19.7456245422
aF40.5695915222
aF59.4074478149
aF37.1800079346
aF37.8266029358
aF17.6819953918
aF24.4786148071
aF28.6242790222
aF13.6091842651
aF13.602519989
aF8.82745361328
aF23.9002113342
aF22.19373703
aF44.0976142883
aF43.2536010742
aF18.840713501
aF15.1575393677
aF42.3040466309
aF56.6210899353
aF48.1767349243
aF35.1422080994
aaa(lp2642
g114
a(lp2643
F24.6588745117
aF7.33018875122
aF36.1058425903
aF41.4626617432
aF46.0832176208
aF11.8615570068
aF14.1309967041
aF90.1060523987
aF16.4557418823
aF17.3973884583
aF42.9803009033
aF28.6193733215
aF49.0881385803
aF18.7533798218
aF13.530834198
aF16.423160553
aF6.90507507324
aF19.2112121582
aF15.6056671143
aF36.087436676
aF4.79447555542
aF7.55767440796
aF33.877155304
aF5.38912582397
aF56.2497940063
aF23.011806488
aF56.5820770264
aF27.1564178467
aF19.8649749756
aF33.7037467957
aF32.944316864
aF24.4031028748
aF18.4128265381
aF13.0536956787
aF13.4028778076
aF8.55089187622
aF23.4372024536
aF21.8070373535
aF43.0365715027
aF42.276550293
aF15.5284690857
aF4.98641586304
aF14.9769897461
aF43.8953514099
aF42.2458877563
aF27.6560173035
aaa(lp2644
g116
a(lp2645
F7.56966018677
aF35.9233818054
aF42.6169319153
aF45.5024528503
aF11.7971115112
aF13.6903953552
aF16.6982002258
aF14.8068008423
aF90.0229988098
aF16.7969741821
aF17.0539054871
aF42.4893112183
aF29.4373016357
aF53.4065055847
aF18.3675575256
aF14.6261329651
aF17.3170967102
aF7.07649230957
aF19.8321495056
aF15.8207855225
aF36.4793663025
aF4.95372009277
aF8.05137252808
aF35.5095672607
aF5.49294662476
aF55.4814300537
aF25.770652771
aF58.1021652222
aF31.937702179
aF20.5472602844
aF33.713142395
aF24.2599220276
aF19.0637779236
aF12.7172775269
aF13.1702766418
aF8.89307403564
aF23.874912262
aF21.3441619873
aF41.6606216431
aF42.4277000427
aF18.1309623718
aF4.94737243652
aF15.308052063
aF32.7806549072
aF35.8867454529
aF35.5002174377
aF56.8680458069
aF50.7980880737
aF38.6508331299
aaa(lp2646
g118
a(lp2647
F7.50737762451
aF34.6463394165
aF43.0944328308
aF45.9175338745
aF12.091583252
aF14.1262931824
aF17.2992858887
aF14.7789077759
aF91.1018066406
aF16.9044494629
aF17.6709403992
aF42.2979698181
aF28.625831604
aF52.1304855347
aF17.5590667725
aF14.3162498474
aF16.5596694946
aF6.85459136963
aF16.5940895081
aF13.8374481201
aF35.1528015137
aF4.82827377319
aF7.89784240723
aF34.0665626526
aF5.45533370972
aF55.3796195984
aF25.8326263428
aF58.3933677673
aF32.1044845581
aF20.5605697632
aF33.7194709778
aF25.4041366577
aF20.1932373047
aF13.545879364
aF13.1592941284
aF8.59160614014
aF23.370513916
aF20.7721786499
aF40.405216217
aF42.887928009
aF17.9920806885
aF4.92222213745
aF15.0661468506
aF32.4917564392
aF35.6819610596
aF35.3810462952
aF58.4259910583
aF52.1811065674
aF38.85313797
aaa(lp2648
g121
a(lp2649
F31.4204559326
aF12.8659629822
aF47.3665618896
aF58.3967132568
aF11.4149208069
aF89.2953414917
aF19.6064376831
aF24.7121925354
aF44.8419418335
aF50.6858329773
aF13.9951133728
aF15.5184059143
aF5.33857727051
aF19.2793540955
aF13.4328727722
aF35.9130859375
aF10.1709671021
aF32.4689559937
aF50.5996513367
aF32.5914344788
aF29.7449951172
aF20.0822143555
aF63.8705711365
aF37.1699905396
aF16.8369026184
aF24.4735946655
aF27.5830039978
aF13.2816925049
aF8.07835769653
aF23.1502227783
aF21.7874145508
aF38.7253684998
aF6.28835296631
aF43.1389083862
aF18.9349708557
aF5.07497787476
aF43.2617759705
aF53.3667221069
aF50.8965415955
aF37.8238449097
aaa(lp2650
g123
a(lp2651
F32.111328125
aF12.7919769287
aF50.3426246643
aF58.5784301758
aF11.6278495789
aF89.7709121704
aF31.0774879456
aF22.3804550171
aF44.5762252808
aF21.5549659729
aF52.859336853
aF27.2934303284
aF14.7923545837
aF18.277759552
aF14.9106941223
aF15.4866485596
aF6.46385955811
aF20.300868988
aF13.4460792542
aF36.2268486023
aF8.72365188599
aF6.20853805542
aF5.81061553955
aF51.1245880127
aF32.5534934998
aF26.5347366333
aF19.910949707
aF64.3552856445
aF43.7633628845
aF32.9481658936
aF19.5755996704
aF24.4356117249
aF18.8678207397
aF14.1174087524
aF8.83299255371
aF23.4978485107
aF21.3227767944
aF43.1961708069
aF43.066192627
aF17.8139915466
aF5.43998718262
aF14.9621353149
aF44.618270874
aF43.4361343384
aF27.9589004517
aaa(lp2652
g125
a(lp2653
F30.5461502075
aF12.3107833862
aF48.4813194275
aF57.883769989
aF6.22856140137
aF11.5374450684
aF9.62528610229
aF16.2863426208
aF89.7446403503
aF32.6058082581
aF22.1238670349
aF44.7117652893
aF20.2334060669
aF53.1179504395
aF28.1848106384
aF14.499042511
aF18.4968185425
aF14.5951881409
aF16.0399627686
aF6.53467178345
aF21.4373474121
aF13.5122146606
aF36.8223342896
aF8.57260513306
aF5.93834686279
aF5.45046234131
aF51.8699989319
aF33.224811554
aF31.5394668579
aF20.4262886047
aF44.6910057068
aF33.712890625
aF19.9144020081
aF25.2627258301
aF19.9367599487
aF13.4294395447
aF8.7731628418
aF23.8682060242
aF21.9551506042
aF43.659576416
aF43.1458358765
aF18.3726081848
aF4.8920249939
aF14.977809906
aF32.097114563
aF34.0263214111
aF33.5766563416
aF50.3649749756
aF47.8882408142
aF38.9497795105
aaa(lp2654
g127
a(lp2655
F31.4693984985
aF12.7657737732
aF47.6519470215
aF57.0285758972
aF6.08657836914
aF11.3647994995
aF9.66568374634
aF16.2552909851
aF88.3006095886
aF31.4102973938
aF21.709072113
aF42.8112106323
aF20.3725776672
aF53.4394035339
aF28.449054718
aF14.3108291626
aF18.4243927002
aF14.9683074951
aF16.1509742737
aF6.56531524658
aF21.5728988647
aF13.6425743103
aF37.1251182556
aF9.00508499146
aF5.93140411377
aF5.47573852539
aF51.7336502075
aF32.4744224548
aF30.953868866
aF20.1730308533
aF44.0036773682
aF33.7256507874
aF19.9170074463
aF24.5411491394
aF19.1825790405
aF12.860786438
aF8.28705978394
aF22.1890335083
aF19.6090621948
aF40.1211738586
aF41.5872840881
aF15.9357376099
aF4.51988601685
aF14.0471611023
aF29.6038894653
aF32.677154541
aF32.7923851013
aF43.4476966858
aF50.8361206055
aF30.712600708
aaa(lp2656
g130
a(lp2657
F31.5903587341
aF12.8349151611
aF48.8807029724
aF57.5709648132
aF45.1581993103
aF9.63157653809
aF55.6948394775
aF40.980758667
aF57.09582901
aF33.2797966003
aF25.8464889526
aF42.0752677917
aF51.6174468994
aF27.3655433655
aF31.750087738
aF17.6309204102
aF16.4201164246
aF17.3395957947
aF7.10151672363
aF20.7208213806
aF14.7899017334
aF41.7418518066
aF16.7848739624
aF32.0075950623
aF35.3805656433
aF29.8197669983
aF20.0859489441
aF45.1520195007
aF37.2736587524
aF17.9571876526
aF24.4797019958
aF12.9999198914
aF14.2762413025
aF8.16883468628
aF29.4979324341
aF22.1763191223
aF35.7243003845
aF17.6849021912
aF5.88846969604
aF50.7233810425
aF35.4418182373
aF42.2269592285
aF53.0334739685
aF44.9735031128
aaa(lp2658
g132
a(lp2659
F30.9454231262
aF13.6358604431
aF49.9090995789
aF55.8165054321
aF46.5867271423
aF9.08833312988
aF56.0619239807
aF41.671962738
aF55.5702819824
aF25.9529685974
aF15.6991462708
aF43.3701820374
aF28.356754303
aF36.9144134521
aF14.4584579468
aF30.9430656433
aF16.6625976562
aF19.4023094177
aF17.5671043396
aF7.10801315308
aF20.8701629639
aF13.2173957825
aF43.0975379944
aF16.5911331177
aF32.5895004272
aF5.55086898804
aF34.6676063538
aF25.7812805176
aF19.7297477722
aF45.4240684509
aF48.6031494141
aF44.1809234619
aF44.6563301086
aF30.2904319763
aF19.5764770508
aF23.3018417358
aF28.2435150146
aF11.6507987976
aF14.0849075317
aF8.49464416504
aF29.8537712097
aF21.7753868103
aF34.7840232849
aF16.8582687378
aF14.8353004456
aF51.0581245422
aF35.5158920288
aF54.7510566711
aF42.6107254028
aaa(lp2660
g134
a(lp2661
F32.4337425232
aF13.1383628845
aF48.7606773376
aF59.3728942871
aF45.6455726624
aF11.3826217651
aF9.80662155151
aF16.7468528748
aF11.9193305969
aF56.3848953247
aF43.0445594788
aF57.1049308777
aF25.5565185547
aF15.6816101074
aF43.4948348999
aF29.4440803528
aF36.511390686
aF15.0951423645
aF32.0184440613
aF17.4315032959
aF19.6985092163
aF17.61901474
aF7.08367156982
aF20.5201797485
aF13.6666870117
aF43.3237915039
aF16.7910461426
aF33.2798156738
aF6.02452468872
aF37.3117675781
aF32.0374984741
aF20.5079917908
aF67.8085021973
aF44.7479019165
aF47.106300354
aF30.8284797668
aF19.9111099243
aF25.2318229675
aF28.7744789124
aF13.1835365295
aF14.5328712463
aF8.31290054321
aF30.1208724976
aF22.1818275452
aF36.2227325439
aF16.8553466797
aF15.1325416565
aF63.3808517456
aF48.3170318604
aF36.1710319519
aF44.4381637573
aF54.8093261719
aF50.9027748108
aaa(lp2662
g136
a(lp2663
F32.1288223267
aF12.9740600586
aF48.4808921814
aF59.1224784851
aF45.3294181824
aF11.2727012634
aF9.70792770386
aF16.6016387939
aF11.8087501526
aF55.9935035706
aF41.6457443237
aF56.6238822937
aF24.9382629395
aF15.5186157227
aF43.419467926
aF29.0744857788
aF36.2377243042
aF14.8506507874
aF31.0606880188
aF16.7391166687
aF19.1512184143
aF17.4297409058
aF7.03169250488
aF20.5034217834
aF13.4095573425
aF43.2933540344
aF16.7914543152
aF33.2761535645
aF5.98659133911
aF37.3591041565
aF31.9573135376
aF20.5438308716
aF67.7459220886
aF44.6517028809
aF46.78956604
aF30.8133850098
aF19.9161338806
aF25.1814727783
aF28.5047187805
aF13.2450523376
aF14.3484535217
aF7.95194625854
aF24.6308250427
aF16.8770370483
aF34.2938499451
aF16.2249488831
aF15.2320480347
aF62.9966850281
aF48.1731872559
aF36.2552490234
aF44.355506897
aF54.8615341187
aF52.2363586426
aaa(lp2664
g139
a(lp2665
F29.35729599
aF9.67054748535
aF49.0070037842
aF55.8667373657
aF9.90247344971
aF13.1405792236
aF13.9322013855
aF94.0490074158
aF19.738483429
aF25.5759773254
aF46.080165863
aF52.8650779724
aF10.2479629517
aF9.77297592163
aF16.0454101562
aF3.95433425903
aF19.3695335388
aF14.1385345459
aF32.8337554932
aF17.9250869751
aF8.99085235596
aF24.53540802
aF25.8527336121
aF40.6715774536
aF58.6115684509
aF14.783039093
aF19.7551040649
aF12.7065238953
aF15.3622436523
aF8.04183197021
aF21.7257385254
aF21.3029670715
aF35.1111450195
aF6.50707244873
aF8.03002929688
aF12.1182518005
aF6.05633544922
aF42.3377189636
aF43.7455558777
aF52.4122924805
aF46.0185012817
aF38.4357261658
aaa(lp2666
g141
a(lp2667
F28.6702651978
aF8.68798828125
aF52.2418632507
aF56.431022644
aF9.10292053223
aF12.4814033508
aF13.5590858459
aF91.6161727905
aF31.2912750244
aF16.8088531494
aF43.9083480835
aF27.0776786804
aF52.3868865967
aF27.5426597595
aF14.1931419373
aF9.45027923584
aF17.5071983337
aF5.27365493774
aF18.6800956726
aF14.0638275146
aF41.554309845
aF3.80030059814
aF7.59710693359
aF7.57253265381
aF3.73819732666
aF25.2741279602
aF44.2459449768
aF60.4833984375
aF45.1341400146
aF31.5885696411
aF46.4364776611
aF37.9045257568
aF25.5218162537
aF43.2081604004
aF30.2165870667
aF14.5825309753
aF7.6881942749
aF29.138130188
aF21.7708587646
aF36.0313949585
aF6.53352737427
aF7.82037353516
aF10.7446670532
aF5.11395263672
aF5.67910766602
aF45.5362548828
aF47.7871246338
aF58.4697265625
aF22.4042205811
aaa(lp2668
g143
a(lp2669
F29.642616272
aF10.0262145996
aF51.563041687
aF56.8975830078
aF9.95659255981
aF13.5261497498
aF11.8898353577
aF14.6634559631
aF94.0961761475
aF32.8101654053
aF17.0906410217
aF45.2361755371
aF26.6350631714
aF53.3551445007
aF26.6000785828
aF14.6855812073
aF9.75361633301
aF17.2735557556
aF5.48295211792
aF19.4517059326
aF15.3765335083
aF43.5530548096
aF3.66087722778
aF7.99462127686
aF8.48045730591
aF3.6565284729
aF24.5358161926
aF27.176399231
aF33.7223587036
aF39.2786407471
aF14.9043731689
aF27.7334480286
aF20.1297149658
aF13.2527503967
aF15.5601768494
aF8.25759506226
aF30.0129013062
aF22.1806907654
aF36.3359603882
aF6.64692306519
aF8.19498443604
aF12.5232467651
aF4.95149230957
aF6.2223777771
aF33.0129203796
aF35.9283599854
aF48.2410163879
aF35.454750061
aF44.3962440491
aF53.9342041016
aF48.1765060425
aF40.4518203735
aaa(lp2670
g145
a(lp2671
F29.6669540405
aF10.0262260437
aF51.5701026917
aF57.1250762939
aF9.95384216309
aF12.938167572
aF11.4087371826
aF14.4638175964
aF90.0461769104
aF31.9222679138
aF16.6485443115
aF44.9859275818
aF26.5957450867
aF53.4691047668
aF26.1105690002
aF13.7843437195
aF9.72507858276
aF17.7127189636
aF5.50361633301
aF19.2831497192
aF15.5129013062
aF43.3643722534
aF3.67371368408
aF8.00950241089
aF8.48096847534
aF3.64640426636
aF24.5383758545
aF26.184261322
aF33.7272758484
aF39.1753768921
aF14.7871055603
aF26.373134613
aF19.6660041809
aF12.5604248047
aF15.0049171448
aF7.61989593506
aF28.5847587585
aF21.7548561096
aF35.3490371704
aF6.5577545166
aF8.15662002563
aF12.1497840881
aF4.86838531494
aF6.14233779907
aF32.2519226074
aF35.180316925
aF47.8967437744
aF34.6614532471
aF44.0443077087
aF52.376209259
aF46.8094978333
aF39.7976303101
aaa(lp2672
g148
a(lp2673
F36.425819397
aF39.4998970032
aF36.6972732544
aF4.93566131592
aF93.3301582336
aF17.499584198
aF30.4188537598
aF43.9675941467
aF27.2242507935
aF47.7106246948
aF27.598991394
aF42.2701911926
aF17.0114784241
aF43.0106277466
aF9.0392036438
aF5.76780319214
aF14.6683387756
aF32.8339576721
aF10.163772583
aF44.6775436401
aF23.427318573
aF24.1891593933
aF43.3598861694
aF30.6099128723
aF46.3526649475
aF39.1700057983
aF25.5167579651
aF43.1109008789
aF31.4481124878
aF17.5344657898
aF13.6184196472
aF26.0456886292
aF22.5518188477
aF37.0649909973
aF31.3222084045
aF6.79723358154
aF25.2543563843
aF35.6603164673
aF44.8594322205
aF52.6591148376
aF42.6180000305
aF36.7586593628
aaa(lp2674
g151
a(lp2675
F22.7411079407
aF11.8165550232
aF47.2377471924
aF29.5202102661
aF52.8852119446
aF11.0981369019
aF11.2703819275
aF14.1792030334
aF6.17121887207
aF7.71955490112
aF15.0907020569
aF33.0548286438
aF9.81058502197
aF38.7977104187
aF24.6368179321
aF49.9079055786
aF10.0025177002
aF12.8158721924
aF14.7183456421
aF10.1344871521
aF9.12477111816
aF11.4418106079
aF6.33297348022
aF18.2345542908
aF14.528717041
aF37.1380844116
aF5.17460632324
aF8.89061737061
aF9.19530105591
aF5.93064498901
aF6.72513580322
aF11.690952301
aF17.3189582825
aF25.2928352356
aF22.5754890442
aF24.8408889771
aF14.3080062866
aF37.0739479065
aF9.41832351685
aF22.7648658752
aF15.2562866211
aF13.4555473328
aF13.3309020996
aF9.65216445923
aF6.86987686157
aF25.9706192017
aF22.8108406067
aF40.8397674561
aF5.93531036377
aF8.33210754395
aF11.5851821899
aF7.3126335144
aF6.64443969727
aF9.51115036011
aF35.8705444336
aF35.3743591309
aF47.744102478
aF66.4823608398
aF41.4749946594
aF34.7015571594
aaatp2676
Rp2677
aa(lp2678
g24
ag0
((lp2679
(lp2680
g76
a(lp2681
aa(lp2682
g78
a(lp2683
aa(lp2684
g80
a(lp2685
aa(lp2686
g82
a(lp2687
aa(lp2688
g85
a(lp2689
aa(lp2690
g87
a(lp2691
aa(lp2692
g89
a(lp2693
aa(lp2694
g91
a(lp2695
aa(lp2696
g94
a(lp2697
aa(lp2698
g96
a(lp2699
aa(lp2700
g98
a(lp2701
aa(lp2702
g100
a(lp2703
aa(lp2704
g103
a(lp2705
aa(lp2706
g105
a(lp2707
aa(lp2708
g107
a(lp2709
aa(lp2710
g109
a(lp2711
aa(lp2712
g112
a(lp2713
aa(lp2714
g114
a(lp2715
aa(lp2716
g116
a(lp2717
aa(lp2718
g118
a(lp2719
aa(lp2720
g121
a(lp2721
aa(lp2722
g123
a(lp2723
aa(lp2724
g125
a(lp2725
aa(lp2726
g127
a(lp2727
aa(lp2728
g130
a(lp2729
aa(lp2730
g132
a(lp2731
aa(lp2732
g134
a(lp2733
aa(lp2734
g136
a(lp2735
aa(lp2736
g139
a(lp2737
aa(lp2738
g141
a(lp2739
aa(lp2740
g143
a(lp2741
aa(lp2742
g145
a(lp2743
aa(lp2744
g148
a(lp2745
aa(lp2746
g151
a(lp2747
aatp2748
Rp2749
aatp2750
Rp2751
aa(lp2752
g9
ag0
((lp2753
tp2754
Rp2755
aa(lp2756
g14
ag0
((lp2757
tp2758
Rp2759
aa(lp2760
g19
ag0
((lp2761
tp2762
Rp2763
aa(lp2764
g24
ag0
((lp2765
tp2766
Rp2767
aatp2768
Rp2769
aatp2770
Rp2771
.